LX51 LINKER/LOCATER V4.66.97.0                                                          12/02/2020  18:06:15  PAGE 1


LX51 LINKER/LOCATER V4.66.97.0, INVOKED BY:
D:\SILICONLABS\SIMPLICITYSTUDIO\V5\DEVELOPER\TOOLCHAINS\KEIL_8051\9.60\BIN\LX51.EXE ./F31x_Blinky.OBJ, ./cmd.OBJ, ./sta.
>> OBJ, ./src/SILABS_STARTUP.OBJ, ./src/adc.OBJ, ./src/spi.OBJ, ./src/sys.OBJ, ./src/timer.OBJ, ./src/uart.OBJ TO F31X_B
>> LINKY.OMF.CRBUILD REMOVEUNUSED PRINT (.\F31x_Blinky.m51) PAGEWIDTH (120) PAGELENGTH (65) CLASSES (ECODE (C:0X0-C:0X3D
>> FE), HCONST (C:0X0-C:0X3DFE), XDATA (X:0X0-X:0X3FF), HDATA (X:0X0-X:0X3FF))


CPU MODE:     8051 MODE
MEMORY MODEL: COMPACT WITH FLOATING POINT ARITHMETIC


INPUT MODULES INCLUDED:
  ./F31x_Blinky.OBJ (F31X_BLINKY)
         COMMENT TYPE 0: C51 V9.60.0.0
  ./cmd.OBJ (CMD)
         COMMENT TYPE 0: C51 V9.60.0.0
  ./sta.OBJ (STA)
         COMMENT TYPE 0: C51 V9.60.0.0
  ./src/SILABS_STARTUP.OBJ (?C_STARTUP)
         COMMENT TYPE 0: AX51 V3.15.3.0
  ./src/adc.OBJ (ADC)
         COMMENT TYPE 0: C51 V9.60.0.0
  ./src/spi.OBJ (SPI)
         COMMENT TYPE 0: C51 V9.60.0.0
  ./src/sys.OBJ (SYS)
         COMMENT TYPE 0: C51 V9.60.0.0
  ./src/timer.OBJ (TIMER)
         COMMENT TYPE 0: C51 V9.60.0.0
  ./src/uart.OBJ (UART)
         COMMENT TYPE 0: C51 V9.60.0.0
  D:\SILICONLABS\SIMPLICITYSTUDIO\V5\DEVELOPER\TOOLCHAINS\KEIL_8051\9.60\LIB\C51FPC.LIB (?C?FPADD)
         COMMENT TYPE 1: A51 / ASM51 Assembler
  D:\SILICONLABS\SIMPLICITYSTUDIO\V5\DEVELOPER\TOOLCHAINS\KEIL_8051\9.60\LIB\C51FPC.LIB (?C?FPMUL)
         COMMENT TYPE 1: A51 / ASM51 Assembler
  D:\SILICONLABS\SIMPLICITYSTUDIO\V5\DEVELOPER\TOOLCHAINS\KEIL_8051\9.60\LIB\C51FPC.LIB (?C?FPDIV)
         COMMENT TYPE 1: A51 / ASM51 Assembler
  D:\SILICONLABS\SIMPLICITYSTUDIO\V5\DEVELOPER\TOOLCHAINS\KEIL_8051\9.60\LIB\C51FPC.LIB (?C?FPCMP)
         COMMENT TYPE 1: A51 / ASM51 Assembler
  D:\SILICONLABS\SIMPLICITYSTUDIO\V5\DEVELOPER\TOOLCHAINS\KEIL_8051\9.60\LIB\C51FPC.LIB (?C?FCAST)
         COMMENT TYPE 1: A51 / ASM51 Assembler
  D:\SILICONLABS\SIMPLICITYSTUDIO\V5\DEVELOPER\TOOLCHAINS\KEIL_8051\9.60\LIB\C51FPC.LIB (?C?CASTF)
         COMMENT TYPE 1: A51 / ASM51 Assembler
  D:\SILICONLABS\SIMPLICITYSTUDIO\V5\DEVELOPER\TOOLCHAINS\KEIL_8051\9.60\LIB\C51FPC.LIB (?C?FPGETOPN)
         COMMENT TYPE 1: A51 / ASM51 Assembler
  D:\SILICONLABS\SIMPLICITYSTUDIO\V5\DEVELOPER\TOOLCHAINS\KEIL_8051\9.60\LIB\C51C.LIB (?C_INIT)
         COMMENT TYPE 1: A51 / ASM51 Assembler
  D:\SILICONLABS\SIMPLICITYSTUDIO\V5\DEVELOPER\TOOLCHAINS\KEIL_8051\9.60\LIB\C51C.LIB (?C?CLDPTR)
         COMMENT TYPE 1: A51 / ASM51 Assembler
  D:\SILICONLABS\SIMPLICITYSTUDIO\V5\DEVELOPER\TOOLCHAINS\KEIL_8051\9.60\LIB\C51C.LIB (?C?CLDOPTR)
         COMMENT TYPE 1: A51 / ASM51 Assembler
  D:\SILICONLABS\SIMPLICITYSTUDIO\V5\DEVELOPER\TOOLCHAINS\KEIL_8051\9.60\LIB\C51C.LIB (?C?CSTPTR)
         COMMENT TYPE 1: A51 / ASM51 Assembler
  D:\SILICONLABS\SIMPLICITYSTUDIO\V5\DEVELOPER\TOOLCHAINS\KEIL_8051\9.60\LIB\C51C.LIB (?C?CSTOPTR)
         COMMENT TYPE 1: A51 / ASM51 Assembler
  D:\SILICONLABS\SIMPLICITYSTUDIO\V5\DEVELOPER\TOOLCHAINS\KEIL_8051\9.60\LIB\C51C.LIB (?C?IMUL)
         COMMENT TYPE 1: A51 / ASM51 Assembler
  D:\SILICONLABS\SIMPLICITYSTUDIO\V5\DEVELOPER\TOOLCHAINS\KEIL_8051\9.60\LIB\C51C.LIB (?C?ISTPTR)
         COMMENT TYPE 1: A51 / ASM51 Assembler
  D:\SILICONLABS\SIMPLICITYSTUDIO\V5\DEVELOPER\TOOLCHAINS\KEIL_8051\9.60\LIB\C51C.LIB (?C?LMUL)
         COMMENT TYPE 1: A51 / ASM51 Assembler
  D:\SILICONLABS\SIMPLICITYSTUDIO\V5\DEVELOPER\TOOLCHAINS\KEIL_8051\9.60\LIB\C51C.LIB (?C?ULDIV)
         COMMENT TYPE 1: A51 / ASM51 Assembler
  D:\SILICONLABS\SIMPLICITYSTUDIO\V5\DEVELOPER\TOOLCHAINS\KEIL_8051\9.60\LIB\C51C.LIB (?C?LNEG)
LX51 LINKER/LOCATER V4.66.97.0                                                        12/02/2020  18:06:15  PAGE 2


         COMMENT TYPE 1: A51 / ASM51 Assembler
  D:\SILICONLABS\SIMPLICITYSTUDIO\V5\DEVELOPER\TOOLCHAINS\KEIL_8051\9.60\LIB\C51C.LIB (?C?ULCMP)
         COMMENT TYPE 1: A51 / ASM51 Assembler
  D:\SILICONLABS\SIMPLICITYSTUDIO\V5\DEVELOPER\TOOLCHAINS\KEIL_8051\9.60\LIB\C51C.LIB (?C?ULSHR)
         COMMENT TYPE 1: A51 / ASM51 Assembler
  D:\SILICONLABS\SIMPLICITYSTUDIO\V5\DEVELOPER\TOOLCHAINS\KEIL_8051\9.60\LIB\C51C.LIB (?C?LSHL)
         COMMENT TYPE 1: A51 / ASM51 Assembler
  D:\SILICONLABS\SIMPLICITYSTUDIO\V5\DEVELOPER\TOOLCHAINS\KEIL_8051\9.60\LIB\C51C.LIB (?C?LSTPDATA)
         COMMENT TYPE 1: A51 / ASM51 Assembler
  D:\SILICONLABS\SIMPLICITYSTUDIO\V5\DEVELOPER\TOOLCHAINS\KEIL_8051\9.60\LIB\C51C.LIB (?C?LSTKPDATA)
         COMMENT TYPE 1: A51 / ASM51 Assembler


ACTIVE MEMORY CLASSES OF MODULE:  F31X_BLINKY.OMF.CRBUILD (F31X_BLINKY)

BASE        START       END         USED      MEMORY CLASS
==========================================================
C:000000H   C:000000H   C:003DFEH             ECODE
C:000000H   C:000000H   C:003DFEH             HCONST
X:000000H   X:000000H   X:0003FFH             XDATA
X:000000H   X:000000H   X:0003FFH             HDATA
C:000000H   C:000000H   C:00FFFFH   001B0CH   CODE
X:000000H   X:000000H   X:0000FFH   0000F2H   PDATA
I:000000H   I:000000H   I:0000FFH   0000DEH   IDATA
I:000000H   I:000000H   I:00007FH   000008H   DATA


MEMORY MAP OF MODULE:  F31X_BLINKY.OMF.CRBUILD (F31X_BLINKY)


START     STOP      LENGTH    ALIGN  RELOC    MEMORY CLASS   SEGMENT NAME
=========================================================================

* * * * * * * * * * *   D A T A   M E M O R Y   * * * * * * * * * * * * *
000000H   000007H   000008H   ---    AT..     DATA           "REG BANK 0"
000008H   0000B6H   0000AFH   BYTE   UNIT     IDATA          ?ID?STA
0000B7H   0000E4H   00002EH   BYTE   UNIT     IDATA          ?ID?CMD
0000E5H   0000E5H   000001H   BYTE   UNIT     IDATA          ?STACK

* * * * * * * * * * *   C O D E   M E M O R Y   * * * * * * * * * * * * *
000000H   000002H   000003H   ---    OFFS..   CODE           ?CO?SILABS_STARTUP?3
000003H   00001EH   00001CH   BYTE   UNIT     CODE           ?PR?CMDCRCCALC?CMD
00001FH   000022H   000004H   BYTE   UNIT     CODE           ?PR?SILABS_STARTUP?F31X_BLINKY
000023H   000025H   000003H   BYTE   OFFS..   CODE           ?UART?00023
000026H   000031H   00000CH   BYTE   UNIT     CODE           ?PR?SPI_INIT?SPI
000032H   000032H   000001H   ---    ---      **GAP**
000033H   000035H   000003H   BYTE   OFFS..   CODE           ?SPI?00033
000036H   00063DH   000608H   BYTE   UNIT     CODE           ?C?LIB_CODE
00063EH   00092DH   0002F0H   BYTE   UNIT     CODE           ?PR?_FTWGEN?CMD
00092EH   000B6DH   000240H   BYTE   UNIT     CODE           ?PR?_FLOAT_FORMAT?STA
000B6EH   000CCAH   00015DH   BYTE   UNIT     CODE           ?PR?FRAME2CMDCONVERT?CMD
000CCBH   000E1BH   000151H   BYTE   UNIT     CODE           ?PR?_GCD?CMD
000E1CH   000F3CH   000121H   BYTE   UNIT     CODE           ?PR?_PWPARSER?CMD
000F3DH   001026H   0000EAH   BYTE   UNIT     CODE           ?PR?_STRING2LONG?CMD
001027H   0010E9H   0000C3H   BYTE   UNIT     CODE           ?PR?_FORMAT2CMD?CMD
0010EAH   0011A9H   0000C0H   BYTE   UNIT     CODE           ?PR?_ATTPARSER?CMD
0011AAH   001259H   0000B0H   BYTE   UNIT     CODE           ?PR?UPDATESTA?STA
00125AH   0012F5H   00009CH   BYTE   UNIT     CODE           ?PR?_FREQPARSER?CMD
0012F6H   001384H   00008FH   BYTE   UNIT     CODE           ?C_C51STARTUP
001385H   001410H   00008CH   BYTE   UNIT     CODE           ?PR?TIMER_GETUARTCOUNTER?TIMER
001411H   001491H   000081H   BYTE   UNIT     CODE           ?C_INITSEG
001492H   001511H   000080H   BYTE   UNIT     CODE           ?PR?_TEAMPERATURE_CONVERT?STA
LX51 LINKER/LOCATER V4.66.97.0                                                        12/02/2020  18:06:15  PAGE 3


001512H   00158EH   00007DH   BYTE   UNIT     CODE           ?PR?_MODPARSER?CMD
00158FH   0015FFH   000071H   BYTE   UNIT     CODE           ?PR?MAIN?F31X_BLINKY
001600H   001670H   000071H   BYTE   UNIT     CODE           ?PR?_KRPARSER?CMD
001671H   0016D8H   000068H   BYTE   UNIT     CODE           ?PR?_CTPARSER?CMD
0016D9H   00173CH   000064H   BYTE   UNIT     CODE           ?PR?SPI_GETCLOCKRATE?SPI
00173DH   00179EH   000062H   BYTE   UNIT     CODE           ?PR?UART0_INTERRUPT?UART
00179FH   0017F5H   000057H   BYTE   UNIT     CODE           ?PR?_PRTPARSER?CMD
0017F6H   001847H   000052H   BYTE   UNIT     CODE           ?PR?UART_GETBUFF?UART
001848H   00188FH   000048H   BYTE   UNIT     CODE           ?PR?_RFPARSER?CMD
001890H   0018D5H   000046H   BYTE   UNIT     CODE           ?PR?_BITE_CONVERT?STA
0018D6H   001917H   000042H   BYTE   UNIT     CODE           ?PR?_AAPARSER?CMD
001918H   001959H   000042H   BYTE   UNIT     CODE           ?PR?_PSPARSER?CMD
00195AH   00199BH   000042H   BYTE   UNIT     CODE           ?PR?_YSPARSER?CMD
00199CH   0019D8H   00003DH   BYTE   UNIT     CODE           ?PR?FRAMEHEADERSEARCH?CMD
0019D9H   001A10H   000038H   BYTE   UNIT     CODE           ?PR?SPI0_INTERRUPT?SPI
001A11H   001A35H   000025H   BYTE   UNIT     CODE           ?PR?_ADC_START?ADC
001A36H   001A59H   000024H   BYTE   UNIT     CODE           ?PR?_ADC_GET?ADC
001A5AH   001A7BH   000022H   BYTE   UNIT     CODE           ?PR?_BUFFDEL?CMD
001A7CH   001A97H   00001CH   BYTE   UNIT     CODE           ?PR?UPDATEFRAME?STA
001A98H   001AB3H   00001CH   BYTE   UNIT     CODE           ?PR?INIT_DEVICE?SYS
001AB4H   001AC9H   000016H   BYTE   UNIT     CODE           ?PR?PORT_IO_INIT?SYS
001ACAH   001AD9H   000010H   BYTE   UNIT     CODE           ?PR?ADC_INIT?ADC
001ADAH   001AE8H   00000FH   BYTE   UNIT     CODE           ?PR?TIMER_INIT?TIMER
001AE9H   001AF3H   00000BH   BYTE   UNIT     CODE           ?PR?UART_SEND?UART
001AF4H   001AFDH   00000AH   BYTE   UNIT     CODE           ?PR?SPI_SEND?SPI
001AFEH   001B04H   000007H   BYTE   UNIT     CODE           ?PR?INTERRUPTS_INIT?SYS
001B05H   001B08H   000004H   BYTE   UNIT     CODE           ?PR?OSCILLATOR_INIT?SYS
001B09H   001B0CH   000004H   BYTE   UNIT     CODE           ?PR?UART_INIT?UART

* * * * * * * * * * *  X D A T A   M E M O R Y  * * * * * * * * * * * * *
000000H   0000A8H   0000A9H   BYTE   INPAGE   PDATA          ?PD?CMD
0000A9H   0000D2H   00002AH   BYTE   INPAGE   PDATA          _PDATA_GROUP_
0000D3H   0000E1H   00000FH   BYTE   INPAGE   PDATA          ?PD?UART
0000E2H   0000EAH   000009H   BYTE   INPAGE   PDATA          ?PD?STA
0000EBH   0000EEH   000004H   BYTE   INPAGE   PDATA          ?PD?SYS
0000EFH   0000F0H   000002H   BYTE   INPAGE   PDATA          ?PD?SPI
0000F1H   0000F1H   000001H   BYTE   INPAGE   PDATA          ?PD?ADC



OVERLAY MAP OF MODULE:   F31X_BLINKY.OMF.CRBUILD (F31X_BLINKY)


FUNCTION/MODULE                 PDATA_GROUP
--> CALLED FUNCTION/MODULE      START  STOP
===========================================
?C_C51STARTUP                   ----- -----
  +--> SILABS_STARTUP/F31X_BLINKY
  +--> MAIN/F31X_BLINKY
  +--> ?C_INITSEG

SILABS_STARTUP/F31X_BLINKY      ----- -----

MAIN/F31X_BLINKY                00A9H 00ABH
  +--> INIT_DEVICE/SYS
  +--> _ADC_START/ADC
  +--> UART_GETBUFF/UART
  +--> SPI_SEND/SPI
  +--> FRAME2CMDCONVERT/CMD
  +--> UPDATEFRAME/STA
  +--> UPDATESTA/STA
  +--> UART_SEND/UART
LX51 LINKER/LOCATER V4.66.97.0                                                        12/02/2020  18:06:15  PAGE 4


  +--> _ADC_GET/ADC
  +--> _TEAMPERATURE_CONVERT/STA
  +--> _BITE_CONVERT/STA

INIT_DEVICE/SYS                 ----- -----
  +--> PORT_IO_INIT/SYS
  +--> OSCILLATOR_INIT/SYS
  +--> TIMER_INIT/TIMER
  +--> UART_INIT/UART
  +--> SPI_INIT/SPI
  +--> ADC_INIT/ADC
  +--> INTERRUPTS_INIT/SYS

PORT_IO_INIT/SYS                ----- -----

OSCILLATOR_INIT/SYS             ----- -----

TIMER_INIT/TIMER                ----- -----
  +--> TIMER_GETUARTCOUNTER/TIMER

TIMER_GETUARTCOUNTER/TIMER      00ACH 00AFH

UART_INIT/UART                  ----- -----

SPI_INIT/SPI                    ----- -----
  +--> SPI_GETCLOCKRATE/SPI

SPI_GETCLOCKRATE/SPI            00ACH 00AFH

ADC_INIT/ADC                    ----- -----

INTERRUPTS_INIT/SYS             ----- -----

_ADC_START/ADC                  ----- -----

UART_GETBUFF/UART               ----- -----

SPI_SEND/SPI                    ----- -----

FRAME2CMDCONVERT/CMD            ----- -----
  +--> FRAMEHEADERSEARCH/CMD
  +--> _BUFFDEL/CMD
  +--> _KRPARSER/CMD
  +--> _FREQPARSER/CMD
  +--> _PWPARSER/CMD
  +--> _PRTPARSER/CMD
  +--> _ATTPARSER/CMD
  +--> _RFPARSER/CMD
  +--> _MODPARSER/CMD
  +--> _CTPARSER/CMD
  +--> _AAPARSER/CMD
  +--> _PSPARSER/CMD
  +--> _YSPARSER/CMD
  +--> _FTWGEN/CMD
  +--> CMDCRCCALC/CMD

FRAMEHEADERSEARCH/CMD           ----- -----

_BUFFDEL/CMD                    ----- -----

_KRPARSER/CMD                   00ACH 00AFH
  +--> _STRING2LONG/CMD
LX51 LINKER/LOCATER V4.66.97.0                                                        12/02/2020  18:06:15  PAGE 5



_STRING2LONG/CMD                00B4H 00C4H

_FREQPARSER/CMD                 00ACH 00AFH
  +--> _STRING2LONG/CMD

_PWPARSER/CMD                   00ACH 00B3H
  +--> _STRING2LONG/CMD
  +--> _FORMAT2CMD/CMD

_FORMAT2CMD/CMD                 00B4H 00BBH

_PRTPARSER/CMD                  ----- -----
  +--> _STRING2LONG/CMD
  +--> _FORMAT2CMD/CMD

_ATTPARSER/CMD                  00ACH 00AFH
  +--> _STRING2LONG/CMD

_RFPARSER/CMD                   ----- -----

_MODPARSER/CMD                  ----- -----

_CTPARSER/CMD                   00ACH 00AFH
  +--> _STRING2LONG/CMD
  +--> _FORMAT2CMD/CMD

_AAPARSER/CMD                   00ACH 00ACH
  +--> _STRING2LONG/CMD

_PSPARSER/CMD                   00ACH 00ACH
  +--> _STRING2LONG/CMD

_YSPARSER/CMD                   ----- -----
  +--> _STRING2LONG/CMD
  +--> _FORMAT2CMD/CMD

_FTWGEN/CMD                     00ACH 00C6H
  +--> _GCD/CMD

_GCD/CMD                        00C7H 00D2H

CMDCRCCALC/CMD                  ----- -----

UPDATEFRAME/STA                 ----- -----

UPDATESTA/STA                   ----- -----
  +--> _FLOAT_FORMAT/STA

_FLOAT_FORMAT/STA               00ACH 00B5H

UART_SEND/UART                  ----- -----

_ADC_GET/ADC                    ----- -----

_TEAMPERATURE_CONVERT/STA       ----- -----

_BITE_CONVERT/STA               ----- -----

?C_INITSEG                      ----- -----

*** NEW ROOT ******************
LX51 LINKER/LOCATER V4.66.97.0                                                        12/02/2020  18:06:15  PAGE 6



SPI0_INTERRUPT/SPI              ----- -----

*** NEW ROOT ******************

UART0_INTERRUPT/UART            ----- -----



PUBLIC SYMBOLS OF MODULE:  F31X_BLINKY.OMF.CRBUILD (F31X_BLINKY)


      VALUE       CLASS    TYPE      PUBLIC SYMBOL NAME
      =================================================
      020000B4H   PDATA    BYTE      ?_Format2Cmd?BYTE
      020000C7H   PDATA    BYTE      ?_gcd?BYTE
      0100038BH   CODE     ---       ?C?CASTF
      01000425H   CODE     ---       ?C?CLDOPTR
      0100040CH   CODE     ---       ?C?CLDPTR
      00000000H   NUMBER   ---       ?C?CODESEG
      01000464H   CODE     ---       ?C?CSTOPTR
      01000452H   CODE     ---       ?C?CSTPTR
      01000357H   CODE     ---       ?C?FCASTC
      01000352H   CODE     ---       ?C?FCASTI
      0100034DH   CODE     ---       ?C?FCASTL
      0100003DH   CODE     ---       ?C?FPADD
      010002D6H   CODE     ---       ?C?FPCMP
      010002D4H   CODE     ---       ?C?FPCMP3
      01000237H   CODE     ---       ?C?FPDIV
      010003C2H   CODE     ---       ?C?FPGETOPN2
      0100012EH   CODE     ---       ?C?FPMUL
      010003F7H   CODE     ---       ?C?FPNANRESULT
      01000401H   CODE     ---       ?C?FPOVERFLOW
      010003D9H   CODE     ---       ?C?FPRESULT
      010003EDH   CODE     ---       ?C?FPRESULT2
      01000039H   CODE     ---       ?C?FPSUB
      010003FEH   CODE     ---       ?C?FPUNDERFLOW
      01000486H   CODE     ---       ?C?IMUL
      01000498H   CODE     ---       ?C?ISTPTR
      010004B7H   CODE     ---       ?C?LMUL
      010005D4H   CODE     ---       ?C?LNEG
      01000606H   CODE     ---       ?C?LSHL
      01000625H   CODE     ---       ?C?LSTKPDATA
      01000619H   CODE     ---       ?C?LSTPDATA
      010005E2H   CODE     ---       ?C?ULCMP
      01000542H   CODE     ---       ?C?ULDIV
      010005F3H   CODE     ---       ?C?ULSHR
      00000000H   NUMBER   ---       ?C?XDATASEG
      01001340H   CODE     ---       ?C_START
      01000000H   CODE     NEAR LAB  ?C_STARTUP
      010018D6H   CODE     ---       _AAParser
      01001A36H   CODE     ---       _ADC_Get
      01001A11H   CODE     ---       _ADC_Start
      010010EAH   CODE     ---       _ATTParser
      01001890H   CODE     ---       _Bite_Convert
      01001A5AH   CODE     ---       _BuffDel
      01001671H   CODE     ---       _CTParser
      01000942H   CODE     ---       _Float_Format
      01001039H   CODE     ---       _Format2Cmd
      0100125AH   CODE     ---       _FreqParser
      0100063EH   CODE     ---       _FTWGen
      01000CD8H   CODE     ---       _gcd
LX51 LINKER/LOCATER V4.66.97.0                                                        12/02/2020  18:06:15  PAGE 7


      01001600H   CODE     ---       _KRParser
      01001512H   CODE     ---       _MODParser
      0100179FH   CODE     ---       _PRTParser
      01001918H   CODE     ---       _PSParser
      01000E1CH   CODE     ---       _PWParser
      01001848H   CODE     ---       _RFParser
      01000F46H   CODE     ---       _String2Long
      01001492H   CODE     ---       _Teamperature_Convert
      0100195AH   CODE     ---       _YSParser
*SFR* 000000E0H   DATA     BYTE      ACC
*SFR* 000000E0H.0 DATA     BIT       ACC_ACC0
*SFR* 000000E0H.1 DATA     BIT       ACC_ACC1
*SFR* 000000E0H.2 DATA     BIT       ACC_ACC2
*SFR* 000000E0H.3 DATA     BIT       ACC_ACC3
*SFR* 000000E0H.4 DATA     BIT       ACC_ACC4
*SFR* 000000E0H.5 DATA     BIT       ACC_ACC5
*SFR* 000000E0H.6 DATA     BIT       ACC_ACC6
*SFR* 000000E0H.7 DATA     BIT       ACC_ACC7
*SFR* 000000BDH   DATA     WORD      ADC0
*SFR* 000000BCH   DATA     BYTE      ADC0CF
*SFR* 000000E8H   DATA     BYTE      ADC0CN
*SFR* 000000E8H.4 DATA     BIT       ADC0CN_ADBUSY
*SFR* 000000E8H.0 DATA     BIT       ADC0CN_ADCM0
*SFR* 000000E8H.1 DATA     BIT       ADC0CN_ADCM1
*SFR* 000000E8H.2 DATA     BIT       ADC0CN_ADCM2
*SFR* 000000E8H.7 DATA     BIT       ADC0CN_ADEN
*SFR* 000000E8H.5 DATA     BIT       ADC0CN_ADINT
*SFR* 000000E8H.6 DATA     BIT       ADC0CN_ADTM
*SFR* 000000E8H.3 DATA     BIT       ADC0CN_ADWINT
*SFR* 000000C3H   DATA     WORD      ADC0GT
*SFR* 000000C4H   DATA     BYTE      ADC0GTH
*SFR* 000000C3H   DATA     BYTE      ADC0GTL
*SFR* 000000BEH   DATA     BYTE      ADC0H
*SFR* 000000BDH   DATA     BYTE      ADC0L
*SFR* 000000C5H   DATA     WORD      ADC0LT
*SFR* 000000C6H   DATA     BYTE      ADC0LTH
*SFR* 000000C5H   DATA     BYTE      ADC0LTL
      020000F1H   PDATA    CHAR      adc_covert_completed
      01001ACAH   CODE     ---       ADC_Init
*SFR* 000000BAH   DATA     BYTE      AMX0N
*SFR* 000000BBH   DATA     BYTE      AMX0P
*SFR* 000000F0H   DATA     BYTE      B
*SFR* 000000F0H.0 DATA     BIT       B_B0
*SFR* 000000F0H.1 DATA     BIT       B_B1
*SFR* 000000F0H.2 DATA     BIT       B_B2
*SFR* 000000F0H.3 DATA     BIT       B_B3
*SFR* 000000F0H.4 DATA     BIT       B_B4
*SFR* 000000F0H.5 DATA     BIT       B_B5
*SFR* 000000F0H.6 DATA     BIT       B_B6
*SFR* 000000F0H.7 DATA     BIT       B_B7
      020000E3H   PDATA    FLOAT     bite
*SFR* 0000008EH   DATA     BYTE      CKCON
*SFR* 000000A9H   DATA     BYTE      CLKSEL
      020000A5H   PDATA    FLOAT     clock_scale
      000000B7H   IDATA    ---       cmd_msg
      0200009CH   PDATA    BYTE      cmd_msg_valid
      01000003H   CODE     ---       CmdCrcCalc
*SFR* 0000009BH   DATA     BYTE      CPT0CN
*SFR* 0000009DH   DATA     BYTE      CPT0MD
*SFR* 0000009FH   DATA     BYTE      CPT0MX
*SFR* 0000009AH   DATA     BYTE      CPT1CN
*SFR* 0000009CH   DATA     BYTE      CPT1MD
LX51 LINKER/LOCATER V4.66.97.0                                                        12/02/2020  18:06:15  PAGE 8


*SFR* 0000009EH   DATA     BYTE      CPT1MX
*SFR* 00000082H   DATA     WORD      DP
*SFR* 00000083H   DATA     BYTE      DPH
*SFR* 00000082H   DATA     BYTE      DPL
*SFR* 000000E6H   DATA     BYTE      EIE1
*SFR* 000000F6H   DATA     BYTE      EIP1
*SFR* 000000AAH   DATA     BYTE      EMI0CN
*SFR* 000000B7H   DATA     BYTE      FLKEY
*SFR* 000000B6H   DATA     BYTE      FLSCL
      01000B6EH   CODE     ---       Frame2CmdConvert
      0100199CH   CODE     ---       FrameHeaderSearch
      02000098H   PDATA    DWORD     freq_mid
      0200009DH   PDATA    DWORD     freq_modulate
      020000A1H   PDATA    DWORD     freq_sweep_bw
*SFR* 000000A8H   DATA     BYTE      IE
*SFR* 000000A8H.7 DATA     BIT       IE_EA
*SFR* 000000A8H.4 DATA     BIT       IE_ES0
*SFR* 000000A8H.6 DATA     BIT       IE_ESPI0
*SFR* 000000A8H.1 DATA     BIT       IE_ET0
*SFR* 000000A8H.3 DATA     BIT       IE_ET1
*SFR* 000000A8H.5 DATA     BIT       IE_ET2
*SFR* 000000A8H.0 DATA     BIT       IE_EX0
*SFR* 000000A8H.2 DATA     BIT       IE_EX1
      01001A98H   CODE     ---       Init_Device
      01001AFEH   CODE     ---       Interrupts_Init
*SFR* 000000B8H   DATA     BYTE      IP
*SFR* 000000B8H.4 DATA     BIT       IP_PS0
*SFR* 000000B8H.6 DATA     BIT       IP_PSPI0
*SFR* 000000B8H.1 DATA     BIT       IP_PT0
*SFR* 000000B8H.3 DATA     BIT       IP_PT1
*SFR* 000000B8H.5 DATA     BIT       IP_PT2
*SFR* 000000B8H.0 DATA     BIT       IP_PX0
*SFR* 000000B8H.2 DATA     BIT       IP_PX1
*SFR* 000000E4H   DATA     BYTE      IT01CF
      0100158FH   CODE     ---       main
*SFR* 000000B3H   DATA     BYTE      OSCICL
*SFR* 000000B2H   DATA     BYTE      OSCICN
      01001B05H   CODE     ---       Oscillator_Init
*SFR* 000000B1H   DATA     BYTE      OSCXCN
*SFR* 00000080H   DATA     BYTE      P0
*SFR* 00000080H.0 DATA     BIT       P0_B0
*SFR* 00000080H.1 DATA     BIT       P0_B1
*SFR* 00000080H.2 DATA     BIT       P0_B2
*SFR* 00000080H.3 DATA     BIT       P0_B3
*SFR* 00000080H.4 DATA     BIT       P0_B4
*SFR* 00000080H.5 DATA     BIT       P0_B5
*SFR* 00000080H.6 DATA     BIT       P0_B6
*SFR* 00000080H.7 DATA     BIT       P0_B7
*SFR* 000000F1H   DATA     BYTE      P0MDIN
*SFR* 000000A4H   DATA     BYTE      P0MDOUT
*SFR* 000000D4H   DATA     BYTE      P0SKIP
*SFR* 00000090H   DATA     BYTE      P1
*SFR* 00000090H.0 DATA     BIT       P1_B0
*SFR* 00000090H.1 DATA     BIT       P1_B1
*SFR* 00000090H.2 DATA     BIT       P1_B2
*SFR* 00000090H.3 DATA     BIT       P1_B3
*SFR* 00000090H.4 DATA     BIT       P1_B4
*SFR* 00000090H.5 DATA     BIT       P1_B5
*SFR* 00000090H.6 DATA     BIT       P1_B6
*SFR* 00000090H.7 DATA     BIT       P1_B7
*SFR* 000000F2H   DATA     BYTE      P1MDIN
*SFR* 000000A5H   DATA     BYTE      P1MDOUT
LX51 LINKER/LOCATER V4.66.97.0                                                        12/02/2020  18:06:15  PAGE 9


*SFR* 000000D5H   DATA     BYTE      P1SKIP
*SFR* 000000A0H   DATA     BYTE      P2
*SFR* 000000A0H.0 DATA     BIT       P2_B0
*SFR* 000000A0H.1 DATA     BIT       P2_B1
*SFR* 000000A0H.2 DATA     BIT       P2_B2
*SFR* 000000A0H.3 DATA     BIT       P2_B3
*SFR* 000000A0H.4 DATA     BIT       P2_B4
*SFR* 000000A0H.5 DATA     BIT       P2_B5
*SFR* 000000A0H.6 DATA     BIT       P2_B6
*SFR* 000000A0H.7 DATA     BIT       P2_B7
*SFR* 000000F3H   DATA     BYTE      P2MDIN
*SFR* 000000A6H   DATA     BYTE      P2MDOUT
*SFR* 000000D6H   DATA     BYTE      P2SKIP
*SFR* 000000B0H   DATA     BYTE      P3
*SFR* 000000B0H.0 DATA     BIT       P3_B0
*SFR* 000000B0H.1 DATA     BIT       P3_B1
*SFR* 000000B0H.2 DATA     BIT       P3_B2
*SFR* 000000B0H.3 DATA     BIT       P3_B3
*SFR* 000000B0H.4 DATA     BIT       P3_B4
*SFR* 000000F4H   DATA     BYTE      P3MDIN
*SFR* 000000A7H   DATA     BYTE      P3MDOUT
      02000000H   PDATA    ---       packet_buff
      02000093H   PDATA    BYTE      packet_buff_size
*SFR* 000000F9H   DATA     WORD      PCA0
*SFR* 000000D8H   DATA     BYTE      PCA0CN
*SFR* 000000D8H.0 DATA     BIT       PCA0CN_CCF0
*SFR* 000000D8H.1 DATA     BIT       PCA0CN_CCF1
*SFR* 000000D8H.2 DATA     BIT       PCA0CN_CCF2
*SFR* 000000D8H.3 DATA     BIT       PCA0CN_CCF3
*SFR* 000000D8H.4 DATA     BIT       PCA0CN_CCF4
*SFR* 000000D8H.7 DATA     BIT       PCA0CN_CF
*SFR* 000000D8H.6 DATA     BIT       PCA0CN_CR
*SFR* 000000FBH   DATA     WORD      PCA0CP0
*SFR* 000000E9H   DATA     WORD      PCA0CP1
*SFR* 000000EBH   DATA     WORD      PCA0CP2
*SFR* 000000EDH   DATA     WORD      PCA0CP3
*SFR* 000000FDH   DATA     WORD      PCA0CP4
*SFR* 000000FCH   DATA     BYTE      PCA0CPH0
*SFR* 000000EAH   DATA     BYTE      PCA0CPH1
*SFR* 000000ECH   DATA     BYTE      PCA0CPH2
*SFR* 000000EEH   DATA     BYTE      PCA0CPH3
*SFR* 000000FEH   DATA     BYTE      PCA0CPH4
*SFR* 000000FBH   DATA     BYTE      PCA0CPL0
*SFR* 000000E9H   DATA     BYTE      PCA0CPL1
*SFR* 000000EBH   DATA     BYTE      PCA0CPL2
*SFR* 000000EDH   DATA     BYTE      PCA0CPL3
*SFR* 000000FDH   DATA     BYTE      PCA0CPL4
*SFR* 000000DAH   DATA     BYTE      PCA0CPM0
*SFR* 000000DBH   DATA     BYTE      PCA0CPM1
*SFR* 000000DCH   DATA     BYTE      PCA0CPM2
*SFR* 000000DDH   DATA     BYTE      PCA0CPM3
*SFR* 000000DEH   DATA     BYTE      PCA0CPM4
*SFR* 000000FAH   DATA     BYTE      PCA0H
*SFR* 000000F9H   DATA     BYTE      PCA0L
*SFR* 000000D9H   DATA     BYTE      PCA0MD
*SFR* 00000087H   DATA     BYTE      PCON
      01001AB4H   CODE     ---       Port_IO_Init
*SFR* 000000A0H   DATA     BYTE      PPAGE_SFR
*SFR* 0000008FH   DATA     BYTE      PSCTL
*SFR* 000000D0H   DATA     BYTE      PSW
*SFR* 000000D0H.6 DATA     BIT       PSW_AC
*SFR* 000000D0H.7 DATA     BIT       PSW_CY
LX51 LINKER/LOCATER V4.66.97.0                                                        12/02/2020  18:06:15  PAGE 10


*SFR* 000000D0H.5 DATA     BIT       PSW_F0
*SFR* 000000D0H.1 DATA     BIT       PSW_F1
*SFR* 000000D0H.2 DATA     BIT       PSW_OV
*SFR* 000000D0H.0 DATA     BIT       PSW_PARITY
*SFR* 000000D0H.3 DATA     BIT       PSW_RS0
*SFR* 000000D0H.4 DATA     BIT       PSW_RS1
*SFR* 000000D1H   DATA     BYTE      REF0CN
*SFR* 000000EFH   DATA     BYTE      RSTSRC
*SFR* 00000099H   DATA     BYTE      SBUF0
*SFR* 00000098H   DATA     BYTE      SCON0
*SFR* 00000098H.5 DATA     BIT       SCON0_MCE
*SFR* 00000098H.2 DATA     BIT       SCON0_RB8
*SFR* 00000098H.4 DATA     BIT       SCON0_REN
*SFR* 00000098H.0 DATA     BIT       SCON0_RI
*SFR* 00000098H.7 DATA     BIT       SCON0_SMODE
*SFR* 00000098H.3 DATA     BIT       SCON0_TB8
*SFR* 00000098H.1 DATA     BIT       SCON0_TI
      0100001FH   CODE     ---       SiLabs_Startup
*SFR* 000000C1H   DATA     BYTE      SMB0CF
*SFR* 000000C0H   DATA     BYTE      SMB0CN
*SFR* 000000C0H.1 DATA     BIT       SMB0CN_ACK
*SFR* 000000C0H.3 DATA     BIT       SMB0CN_ACKRQ
*SFR* 000000C0H.2 DATA     BIT       SMB0CN_ARBLOST
*SFR* 000000C0H.7 DATA     BIT       SMB0CN_MASTER
*SFR* 000000C0H.0 DATA     BIT       SMB0CN_SI
*SFR* 000000C0H.5 DATA     BIT       SMB0CN_STA
*SFR* 000000C0H.4 DATA     BIT       SMB0CN_STO
*SFR* 000000C0H.6 DATA     BIT       SMB0CN_TXMODE
*SFR* 000000C2H   DATA     BYTE      SMB0DAT
*SFR* 00000081H   DATA     BYTE      SP
      010019D9H   CODE     ---       SPI0_Interrupt
*SFR* 000000A1H   DATA     BYTE      SPI0CFG
*SFR* 000000A2H   DATA     BYTE      SPI0CKR
*SFR* 000000F8H   DATA     BYTE      SPI0CN
*SFR* 000000F8H.5 DATA     BIT       SPI0CN_MODF
*SFR* 000000F8H.2 DATA     BIT       SPI0CN_NSSMD0
*SFR* 000000F8H.3 DATA     BIT       SPI0CN_NSSMD1
*SFR* 000000F8H.4 DATA     BIT       SPI0CN_RXOVRN
*SFR* 000000F8H.0 DATA     BIT       SPI0CN_SPIEN
*SFR* 000000F8H.7 DATA     BIT       SPI0CN_SPIF
*SFR* 000000F8H.1 DATA     BIT       SPI0CN_TXBMT
*SFR* 000000F8H.6 DATA     BIT       SPI0CN_WCOL
*SFR* 000000A3H   DATA     BYTE      SPI0DAT
      020000EFH   PDATA    BYTE      spi_cmd_send_complete
      020000F0H   PDATA    BYTE      spi_cmd_send_count
      010016D9H   CODE     ---       SPI_GetClockRate
      01000026H   CODE     ---       SPI_Init
      01001AF4H   CODE     ---       SPI_Send
      00000008H   IDATA    ---       sta_msg
      020000E2H   PDATA    BYTE      sta_msg_len
      020000DFH   PDATA    BYTE      sta_msg_send_complete
      020000D3H   PDATA    BYTE      sta_msg_send_count
      02000094H   PDATA    FLOAT     step_scale
      020000EBH   PDATA    DWORD     Sys_Clk
*SFR* 00000088H   DATA     BYTE      TCON
*SFR* 00000088H.1 DATA     BIT       TCON_IE0
*SFR* 00000088H.3 DATA     BIT       TCON_IE1
*SFR* 00000088H.0 DATA     BIT       TCON_IT0
*SFR* 00000088H.2 DATA     BIT       TCON_IT1
*SFR* 00000088H.5 DATA     BIT       TCON_TF0
*SFR* 00000088H.7 DATA     BIT       TCON_TF1
*SFR* 00000088H.4 DATA     BIT       TCON_TR0
LX51 LINKER/LOCATER V4.66.97.0                                                        12/02/2020  18:06:15  PAGE 11


*SFR* 00000088H.6 DATA     BIT       TCON_TR1
      020000E7H   PDATA    FLOAT     temperature
*SFR* 0000008CH   DATA     BYTE      TH0
*SFR* 0000008DH   DATA     BYTE      TH1
      01001385H   CODE     ---       Timer_GetUartCounter
      01001ADAH   CODE     ---       Timer_Init
*SFR* 0000008AH   DATA     BYTE      TL0
*SFR* 0000008BH   DATA     BYTE      TL1
*SFR* 00000089H   DATA     BYTE      TMOD
*SFR* 000000CCH   DATA     WORD      TMR2
*SFR* 000000C8H   DATA     BYTE      TMR2CN
*SFR* 000000C8H.3 DATA     BIT       TMR2CN_T2SPLIT
*SFR* 000000C8H.0 DATA     BIT       TMR2CN_T2XCLK
*SFR* 000000C8H.7 DATA     BIT       TMR2CN_TF2H
*SFR* 000000C8H.6 DATA     BIT       TMR2CN_TF2L
*SFR* 000000C8H.5 DATA     BIT       TMR2CN_TF2LEN
*SFR* 000000C8H.2 DATA     BIT       TMR2CN_TR2
*SFR* 000000CDH   DATA     BYTE      TMR2H
*SFR* 000000CCH   DATA     BYTE      TMR2L
*SFR* 000000CAH   DATA     WORD      TMR2RL
*SFR* 000000CBH   DATA     BYTE      TMR2RLH
*SFR* 000000CAH   DATA     BYTE      TMR2RLL
*SFR* 00000094H   DATA     WORD      TMR3
*SFR* 00000091H   DATA     BYTE      TMR3CN
*SFR* 00000095H   DATA     BYTE      TMR3H
*SFR* 00000094H   DATA     BYTE      TMR3L
*SFR* 00000092H   DATA     WORD      TMR3RL
*SFR* 00000093H   DATA     BYTE      TMR3RLH
*SFR* 00000092H   DATA     BYTE      TMR3RLL
      0100173DH   CODE     ---       UART0_Interrupt
      020000E0H   PDATA    WORD      Uart_Baud
      010017F6H   CODE     ---       UART_GetBuff
      01001B09H   CODE     ---       UART_Init
      020000D4H   PDATA    ---       Uart_Recv_buff
      020000DEH   PDATA    BYTE      Uart_Recv_buff_size
      01001AE9H   CODE     ---       UART_Send
      01001A7CH   CODE     ---       UpdateFrame
      010011AAH   CODE     ---       UpdateSta
*SFR* 000000FFH   DATA     BYTE      VDM0CN
*SFR* 000000E1H   DATA     BYTE      XBR0
*SFR* 000000E2H   DATA     BYTE      XBR1



SYMBOL TABLE OF MODULE:  F31X_BLINKY.OMF.CRBUILD (F31X_BLINKY)

      VALUE       REP       CLASS    TYPE      SYMBOL NAME
      ====================================================
      ---         MODULE    ---      ---       F31X_BLINKY
      0100158FH   PUBLIC    CODE     ---       main
      0100001FH   PUBLIC    CODE     ---       SiLabs_Startup
      000000A2H   SFRSYM    DATA     BYTE      SPI0CKR
      00000080H   SFRSYM    DATA     BYTE      P0
      000000D0H.2 SFRSYM    DATA     BIT       PSW_OV
      000000D8H.7 SFRSYM    DATA     BIT       PCA0CN_CF
      00000090H   SFRSYM    DATA     BYTE      P1
      000000F8H.4 SFRSYM    DATA     BIT       SPI0CN_RXOVRN
      000000A0H   SFRSYM    DATA     BYTE      P2
      000000B0H   SFRSYM    DATA     BYTE      P3
      000000BCH   SFRSYM    DATA     BYTE      ADC0CF
      000000E8H.7 SFRSYM    DATA     BIT       ADC0CN_ADEN
      000000F9H   SFRSYM    DATA     WORD      PCA0
LX51 LINKER/LOCATER V4.66.97.0                                                        12/02/2020  18:06:15  PAGE 12


      000000E6H   SFRSYM    DATA     BYTE      EIE1
      0000008FH   SFRSYM    DATA     BYTE      PSCTL
      000000E4H   SFRSYM    DATA     BYTE      IT01CF
      000000E8H   SFRSYM    DATA     BYTE      ADC0CN
      000000A4H   SFRSYM    DATA     BYTE      P0MDOUT
      000000D8H.6 SFRSYM    DATA     BIT       PCA0CN_CR
      000000A5H   SFRSYM    DATA     BYTE      P1MDOUT
      000000CBH   SFRSYM    DATA     BYTE      TMR2RLH
      000000A6H   SFRSYM    DATA     BYTE      P2MDOUT
      000000A8H   SFRSYM    DATA     BYTE      IE
      00000093H   SFRSYM    DATA     BYTE      TMR3RLH
      000000A7H   SFRSYM    DATA     BYTE      P3MDOUT
      000000F6H   SFRSYM    DATA     BYTE      EIP1
      000000F8H.0 SFRSYM    DATA     BIT       SPI0CN_SPIEN
      00000098H.2 SFRSYM    DATA     BIT       SCON0_RB8
      000000CAH   SFRSYM    DATA     BYTE      TMR2RLL
      000000FCH   SFRSYM    DATA     BYTE      PCA0CPH0
      000000E8H.6 SFRSYM    DATA     BIT       ADC0CN_ADTM
      00000092H   SFRSYM    DATA     BYTE      TMR3RLL
      000000EAH   SFRSYM    DATA     BYTE      PCA0CPH1
      00000098H.3 SFRSYM    DATA     BIT       SCON0_TB8
      000000F0H.0 SFRSYM    DATA     BIT       B_B0
      00000082H   SFRSYM    DATA     WORD      DP
      000000ECH   SFRSYM    DATA     BYTE      PCA0CPH2
      000000F0H.1 SFRSYM    DATA     BIT       B_B1
      000000C3H   SFRSYM    DATA     WORD      ADC0GT
      000000EEH   SFRSYM    DATA     BYTE      PCA0CPH3
      000000F0H.2 SFRSYM    DATA     BIT       B_B2
      000000FBH   SFRSYM    DATA     BYTE      PCA0CPL0
      000000FEH   SFRSYM    DATA     BYTE      PCA0CPH4
      000000F0H.3 SFRSYM    DATA     BIT       B_B3
      000000D9H   SFRSYM    DATA     BYTE      PCA0MD
      000000DAH   SFRSYM    DATA     BYTE      PCA0CPM0
      000000E9H   SFRSYM    DATA     BYTE      PCA0CPL1
      000000D8H   SFRSYM    DATA     BYTE      PCA0CN
      000000F0H.4 SFRSYM    DATA     BIT       B_B4
      000000DBH   SFRSYM    DATA     BYTE      PCA0CPM1
      000000EBH   SFRSYM    DATA     BYTE      PCA0CPL2
      000000F0H.5 SFRSYM    DATA     BIT       B_B5
      000000DCH   SFRSYM    DATA     BYTE      PCA0CPM2
      000000EDH   SFRSYM    DATA     BYTE      PCA0CPL3
      000000B8H   SFRSYM    DATA     BYTE      IP
      000000F0H.6 SFRSYM    DATA     BIT       B_B6
      000000C5H   SFRSYM    DATA     WORD      ADC0LT
      000000DDH   SFRSYM    DATA     BYTE      PCA0CPM3
      000000FDH   SFRSYM    DATA     BYTE      PCA0CPL4
      00000098H.5 SFRSYM    DATA     BIT       SCON0_MCE
      000000F0H.7 SFRSYM    DATA     BIT       B_B7
      000000DEH   SFRSYM    DATA     BYTE      PCA0CPM4
      000000E1H   SFRSYM    DATA     BYTE      XBR0
      000000C1H   SFRSYM    DATA     BYTE      SMB0CF
      000000E2H   SFRSYM    DATA     BYTE      XBR1
      000000AAH   SFRSYM    DATA     BYTE      EMI0CN
      000000C0H.2 SFRSYM    DATA     BIT       SMB0CN_ARBLOST
      000000E0H.0 SFRSYM    DATA     BIT       ACC_ACC0
      000000D1H   SFRSYM    DATA     BYTE      REF0CN
      000000F8H.1 SFRSYM    DATA     BIT       SPI0CN_TXBMT
      000000E0H.1 SFRSYM    DATA     BIT       ACC_ACC1
      000000C0H.0 SFRSYM    DATA     BIT       SMB0CN_SI
      000000E0H.2 SFRSYM    DATA     BIT       ACC_ACC2
      000000E0H.3 SFRSYM    DATA     BIT       ACC_ACC3
      00000081H   SFRSYM    DATA     BYTE      SP
LX51 LINKER/LOCATER V4.66.97.0                                                        12/02/2020  18:06:15  PAGE 13


      000000E0H.4 SFRSYM    DATA     BIT       ACC_ACC4
      000000E0H.5 SFRSYM    DATA     BIT       ACC_ACC5
      000000C0H   SFRSYM    DATA     BYTE      SMB0CN
      000000E0H.6 SFRSYM    DATA     BIT       ACC_ACC6
      000000CCH   SFRSYM    DATA     WORD      TMR2
      000000E0H.7 SFRSYM    DATA     BIT       ACC_ACC7
      00000094H   SFRSYM    DATA     WORD      TMR3
      000000FFH   SFRSYM    DATA     BYTE      VDM0CN
      000000F1H   SFRSYM    DATA     BYTE      P0MDIN
      0000009DH   SFRSYM    DATA     BYTE      CPT0MD
      0000009BH   SFRSYM    DATA     BYTE      CPT0CN
      00000098H.4 SFRSYM    DATA     BIT       SCON0_REN
      000000F2H   SFRSYM    DATA     BYTE      P1MDIN
      0000009CH   SFRSYM    DATA     BYTE      CPT1MD
      0000009AH   SFRSYM    DATA     BYTE      CPT1CN
      000000F3H   SFRSYM    DATA     BYTE      P2MDIN
      000000F4H   SFRSYM    DATA     BYTE      P3MDIN
      000000C8H.7 SFRSYM    DATA     BIT       TMR2CN_TF2H
      000000C8H.3 SFRSYM    DATA     BIT       TMR2CN_T2SPLIT
      000000F8H   SFRSYM    DATA     BYTE      SPI0CN
      000000D0H.3 SFRSYM    DATA     BIT       PSW_RS0
      00000087H   SFRSYM    DATA     BYTE      PCON
      000000C8H.6 SFRSYM    DATA     BIT       TMR2CN_TF2L
      000000D0H.4 SFRSYM    DATA     BIT       PSW_RS1
      000000E8H.0 SFRSYM    DATA     BIT       ADC0CN_ADCM0
      000000E8H.1 SFRSYM    DATA     BIT       ADC0CN_ADCM1
      000000E8H.2 SFRSYM    DATA     BIT       ADC0CN_ADCM2
      000000E8H.3 SFRSYM    DATA     BIT       ADC0CN_ADWINT
      00000089H   SFRSYM    DATA     BYTE      TMOD
      00000088H   SFRSYM    DATA     BYTE      TCON
      000000E8H.4 SFRSYM    DATA     BIT       ADC0CN_ADBUSY
      000000F8H.5 SFRSYM    DATA     BIT       SPI0CN_MODF
      000000D0H.0 SFRSYM    DATA     BIT       PSW_PARITY
      000000A8H.4 SFRSYM    DATA     BIT       IE_ES0
      000000A8H.1 SFRSYM    DATA     BIT       IE_ET0
      000000C8H   SFRSYM    DATA     BYTE      TMR2CN
      000000A8H.3 SFRSYM    DATA     BIT       IE_ET1
      00000091H   SFRSYM    DATA     BYTE      TMR3CN
      000000D4H   SFRSYM    DATA     BYTE      P0SKIP
      000000A8H.5 SFRSYM    DATA     BIT       IE_ET2
      000000D5H   SFRSYM    DATA     BYTE      P1SKIP
      000000D6H   SFRSYM    DATA     BYTE      P2SKIP
      000000A8H.0 SFRSYM    DATA     BIT       IE_EX0
      000000A8H.2 SFRSYM    DATA     BIT       IE_EX1
      0000009FH   SFRSYM    DATA     BYTE      CPT0MX
      00000098H.7 SFRSYM    DATA     BIT       SCON0_SMODE
      000000B3H   SFRSYM    DATA     BYTE      OSCICL
      0000009EH   SFRSYM    DATA     BYTE      CPT1MX
      000000A9H   SFRSYM    DATA     BYTE      CLKSEL
      000000B2H   SFRSYM    DATA     BYTE      OSCICN
      000000F0H   SFRSYM    DATA     BYTE      B
      000000BEH   SFRSYM    DATA     BYTE      ADC0H
      000000F8H.7 SFRSYM    DATA     BIT       SPI0CN_SPIF
      000000CAH   SFRSYM    DATA     WORD      TMR2RL
      000000BDH   SFRSYM    DATA     BYTE      ADC0L
      000000C8H.5 SFRSYM    DATA     BIT       TMR2CN_TF2LEN
      000000F8H.6 SFRSYM    DATA     BIT       SPI0CN_WCOL
      00000092H   SFRSYM    DATA     WORD      TMR3RL
      000000F8H.2 SFRSYM    DATA     BIT       SPI0CN_NSSMD0
      000000E0H   SFRSYM    DATA     BYTE      ACC
      000000F8H.3 SFRSYM    DATA     BIT       SPI0CN_NSSMD1
      000000FBH   SFRSYM    DATA     WORD      PCA0CP0
LX51 LINKER/LOCATER V4.66.97.0                                                        12/02/2020  18:06:15  PAGE 14


      000000E9H   SFRSYM    DATA     WORD      PCA0CP1
      000000EBH   SFRSYM    DATA     WORD      PCA0CP2
      000000EDH   SFRSYM    DATA     WORD      PCA0CP3
      0000008CH   SFRSYM    DATA     BYTE      TH0
      000000B8H.4 SFRSYM    DATA     BIT       IP_PS0
      000000FDH   SFRSYM    DATA     WORD      PCA0CP4
      0000008DH   SFRSYM    DATA     BYTE      TH1
      000000FAH   SFRSYM    DATA     BYTE      PCA0H
      000000B8H.1 SFRSYM    DATA     BIT       IP_PT0
      000000B8H.3 SFRSYM    DATA     BIT       IP_PT1
      000000B8H.5 SFRSYM    DATA     BIT       IP_PT2
      0000008AH   SFRSYM    DATA     BYTE      TL0
      000000B1H   SFRSYM    DATA     BYTE      OSCXCN
      000000D0H.5 SFRSYM    DATA     BIT       PSW_F0
      000000A8H.6 SFRSYM    DATA     BIT       IE_ESPI0
      0000008BH   SFRSYM    DATA     BYTE      TL1
      000000F9H   SFRSYM    DATA     BYTE      PCA0L
      000000D0H.1 SFRSYM    DATA     BIT       PSW_F1
      00000080H.0 SFRSYM    DATA     BIT       P0_B0
      000000B8H.0 SFRSYM    DATA     BIT       IP_PX0
      000000C8H.0 SFRSYM    DATA     BIT       TMR2CN_T2XCLK
      00000090H.0 SFRSYM    DATA     BIT       P1_B0
      00000080H.1 SFRSYM    DATA     BIT       P0_B1
      000000B8H.2 SFRSYM    DATA     BIT       IP_PX1
      00000088H.1 SFRSYM    DATA     BIT       TCON_IE0
      000000C0H.7 SFRSYM    DATA     BIT       SMB0CN_MASTER
      000000A0H.0 SFRSYM    DATA     BIT       P2_B0
      00000090H.1 SFRSYM    DATA     BIT       P1_B1
      00000080H.2 SFRSYM    DATA     BIT       P0_B2
      00000088H.3 SFRSYM    DATA     BIT       TCON_IE1
      000000C0H.1 SFRSYM    DATA     BIT       SMB0CN_ACK
      000000B0H.0 SFRSYM    DATA     BIT       P3_B0
      000000A0H.1 SFRSYM    DATA     BIT       P2_B1
      00000090H.2 SFRSYM    DATA     BIT       P1_B2
      00000080H.3 SFRSYM    DATA     BIT       P0_B3
      000000B0H.1 SFRSYM    DATA     BIT       P3_B1
      000000A0H.2 SFRSYM    DATA     BIT       P2_B2
      00000090H.3 SFRSYM    DATA     BIT       P1_B3
      00000080H.4 SFRSYM    DATA     BIT       P0_B4
      000000B0H.2 SFRSYM    DATA     BIT       P3_B2
      000000A0H.3 SFRSYM    DATA     BIT       P2_B3
      00000090H.4 SFRSYM    DATA     BIT       P1_B4
      00000080H.5 SFRSYM    DATA     BIT       P0_B5
      000000B0H.3 SFRSYM    DATA     BIT       P3_B3
      000000A0H.4 SFRSYM    DATA     BIT       P2_B4
      00000090H.5 SFRSYM    DATA     BIT       P1_B5
      00000080H.6 SFRSYM    DATA     BIT       P0_B6
      000000C0H.6 SFRSYM    DATA     BIT       SMB0CN_TXMODE
      000000B0H.4 SFRSYM    DATA     BIT       P3_B4
      000000A0H.5 SFRSYM    DATA     BIT       P2_B5
      00000090H.6 SFRSYM    DATA     BIT       P1_B6
      00000080H.7 SFRSYM    DATA     BIT       P0_B7
      000000A0H.6 SFRSYM    DATA     BIT       P2_B6
      00000090H.7 SFRSYM    DATA     BIT       P1_B7
      000000A0H.7 SFRSYM    DATA     BIT       P2_B7
      00000083H   SFRSYM    DATA     BYTE      DPH
      000000E8H.5 SFRSYM    DATA     BIT       ADC0CN_ADINT
      000000C4H   SFRSYM    DATA     BYTE      ADC0GTH
      000000D0H.6 SFRSYM    DATA     BIT       PSW_AC
      00000088H.5 SFRSYM    DATA     BIT       TCON_TF0
      00000098H.0 SFRSYM    DATA     BIT       SCON0_RI
      00000082H   SFRSYM    DATA     BYTE      DPL
LX51 LINKER/LOCATER V4.66.97.0                                                        12/02/2020  18:06:15  PAGE 15


      00000088H.7 SFRSYM    DATA     BIT       TCON_TF1
      00000099H   SFRSYM    DATA     BYTE      SBUF0
      000000C3H   SFRSYM    DATA     BYTE      ADC0GTL
      00000098H.1 SFRSYM    DATA     BIT       SCON0_TI
      000000C6H   SFRSYM    DATA     BYTE      ADC0LTH
      00000088H.0 SFRSYM    DATA     BIT       TCON_IT0
      000000EFH   SFRSYM    DATA     BYTE      RSTSRC
      00000088H.2 SFRSYM    DATA     BIT       TCON_IT1
      00000098H   SFRSYM    DATA     BYTE      SCON0
      000000BAH   SFRSYM    DATA     BYTE      AMX0N
      000000C5H   SFRSYM    DATA     BYTE      ADC0LTL
      000000B8H.6 SFRSYM    DATA     BIT       IP_PSPI0
      000000BBH   SFRSYM    DATA     BYTE      AMX0P
      00000088H.4 SFRSYM    DATA     BIT       TCON_TR0
      00000088H.6 SFRSYM    DATA     BIT       TCON_TR1
      000000C2H   SFRSYM    DATA     BYTE      SMB0DAT
      000000C0H.5 SFRSYM    DATA     BIT       SMB0CN_STA
      000000CDH   SFRSYM    DATA     BYTE      TMR2H
      000000A1H   SFRSYM    DATA     BYTE      SPI0CFG
      00000095H   SFRSYM    DATA     BYTE      TMR3H
      0000008EH   SFRSYM    DATA     BYTE      CKCON
      000000C8H.2 SFRSYM    DATA     BIT       TMR2CN_TR2
      000000CCH   SFRSYM    DATA     BYTE      TMR2L
      00000094H   SFRSYM    DATA     BYTE      TMR3L
      000000D8H.0 SFRSYM    DATA     BIT       PCA0CN_CCF0
      000000A8H.7 SFRSYM    DATA     BIT       IE_EA
      000000D8H.1 SFRSYM    DATA     BIT       PCA0CN_CCF1
      000000B6H   SFRSYM    DATA     BYTE      FLSCL
      000000D8H.2 SFRSYM    DATA     BIT       PCA0CN_CCF2
      000000D0H.7 SFRSYM    DATA     BIT       PSW_CY
      000000D8H.3 SFRSYM    DATA     BIT       PCA0CN_CCF3
      000000A3H   SFRSYM    DATA     BYTE      SPI0DAT
      000000D8H.4 SFRSYM    DATA     BIT       PCA0CN_CCF4
      000000BDH   SFRSYM    DATA     WORD      ADC0
      000000C0H.3 SFRSYM    DATA     BIT       SMB0CN_ACKRQ
      000000D0H   SFRSYM    DATA     BYTE      PSW
      000000C0H.4 SFRSYM    DATA     BIT       SMB0CN_STO
      000000B7H   SFRSYM    DATA     BYTE      FLKEY

      0100001FH   BLOCK     CODE     ---       LVL=0
      0100001FH   LINE      CODE     ---       #25
      0100001FH   LINE      CODE     ---       #26
      0100001FH   LINE      CODE     ---       #27
      01000022H   LINE      CODE     ---       #28
      ---         BLOCKEND  ---      ---       LVL=0

      0100158FH   BLOCK     CODE     ---       LVL=0
      0100158FH   BLOCK     CODE     NEAR LAB  LVL=1
      020000A9H   SYMBOL    PDATA    WORD      adc_var
      020000ABH   SYMBOL    PDATA    BYTE      adc_target
      ---         BLOCKEND  ---      ---       LVL=1
      0100158FH   LINE      CODE     ---       #33
      0100158FH   LINE      CODE     ---       #34
      0100158FH   LINE      CODE     ---       #36
      01001593H   LINE      CODE     ---       #38
      01001596H   LINE      CODE     ---       #40
      01001596H   LINE      CODE     ---       #41
      01001596H   LINE      CODE     ---       #42
      0100159DH   LINE      CODE     ---       #51
      010015A0H   LINE      CODE     ---       #53
      010015A7H   LINE      CODE     ---       #54
      010015A7H   LINE      CODE     ---       #55
LX51 LINKER/LOCATER V4.66.97.0                                                        12/02/2020  18:06:15  PAGE 16


      010015AAH   LINE      CODE     ---       #56
      010015AEH   LINE      CODE     ---       #57
      010015AEH   LINE      CODE     ---       #59
      010015B5H   LINE      CODE     ---       #60
      010015B5H   LINE      CODE     ---       #61
      010015BDH   LINE      CODE     ---       #62
      010015C0H   LINE      CODE     ---       #64
      010015C3H   LINE      CODE     ---       #65
      010015C6H   LINE      CODE     ---       #66
      010015C6H   LINE      CODE     ---       #68
      010015DAH   LINE      CODE     ---       #69
      010015DAH   LINE      CODE     ---       #70
      010015DFH   LINE      CODE     ---       #71
      010015DFH   LINE      CODE     ---       #72
      010015E9H   LINE      CODE     ---       #73
      010015EEH   LINE      CODE     ---       #74
      010015F0H   LINE      CODE     ---       #76
      010015F0H   LINE      CODE     ---       #77
      010015FAH   LINE      CODE     ---       #78
      010015FEH   LINE      CODE     ---       #79
      010015FEH   LINE      CODE     ---       #80
      010015FEH   LINE      CODE     ---       #81
      ---         BLOCKEND  ---      ---       LVL=0

      ---         MODULE    ---      ---       CMD
      020000A5H   PUBLIC    PDATA    FLOAT     clock_scale
      020000A1H   PUBLIC    PDATA    DWORD     freq_sweep_bw
      0200009DH   PUBLIC    PDATA    DWORD     freq_modulate
      000000B7H   PUBLIC    IDATA    ---       cmd_msg
      0200009CH   PUBLIC    PDATA    BYTE      cmd_msg_valid
      02000098H   PUBLIC    PDATA    DWORD     freq_mid
      02000094H   PUBLIC    PDATA    FLOAT     step_scale
      02000093H   PUBLIC    PDATA    BYTE      packet_buff_size
      02000000H   PUBLIC    PDATA    ---       packet_buff
      0100195AH   PUBLIC    CODE     ---       _YSParser
      01001918H   PUBLIC    CODE     ---       _PSParser
      010018D6H   PUBLIC    CODE     ---       _AAParser
      01001671H   PUBLIC    CODE     ---       _CTParser
      01001512H   PUBLIC    CODE     ---       _MODParser
      01001848H   PUBLIC    CODE     ---       _RFParser
      010010EAH   PUBLIC    CODE     ---       _ATTParser
      0100179FH   PUBLIC    CODE     ---       _PRTParser
      01000E1CH   PUBLIC    CODE     ---       _PWParser
      0100125AH   PUBLIC    CODE     ---       _FreqParser
      01001600H   PUBLIC    CODE     ---       _KRParser
      01000B6EH   PUBLIC    CODE     ---       Frame2CmdConvert
      0100199CH   PUBLIC    CODE     ---       FrameHeaderSearch
      01000003H   PUBLIC    CODE     ---       CmdCrcCalc
      01001A5AH   PUBLIC    CODE     ---       _BuffDel
      0100063EH   PUBLIC    CODE     ---       _FTWGen
      020000B4H   PUBLIC    PDATA    BYTE      ?_Format2Cmd?BYTE
      01001039H   PUBLIC    CODE     ---       _Format2Cmd
      01000F46H   PUBLIC    CODE     ---       _String2Long
      020000C7H   PUBLIC    PDATA    BYTE      ?_gcd?BYTE
      01000CD8H   PUBLIC    CODE     ---       _gcd

      01000CCBH   BLOCK     CODE     ---       LVL=0
      ---         BLOCKEND  ---      ---       LVL=0

      01000CD8H   BLOCK     CODE     ---       LVL=0
      020000C7H   SYMBOL    PDATA    DWORD     x
      020000CBH   SYMBOL    PDATA    DWORD     y
LX51 LINKER/LOCATER V4.66.97.0                                                        12/02/2020  18:06:15  PAGE 17


      020000CFH   SYMBOL    PDATA    DWORD     gcdNum
      01000CDDH   BLOCK     CODE     NEAR LAB  LVL=1
      020000CFH   SYMBOL    PDATA    DWORD     gcdNum
      ---         BLOCKEND  ---      ---       LVL=1
      01000CD8H   LINE      CODE     ---       #44
      01000CDDH   LINE      CODE     ---       #45
      01000CDDH   LINE      CODE     ---       #46
      01000CE6H   LINE      CODE     ---       #47
      01000D0AH   LINE      CODE     ---       #48
      01000D0AH   LINE      CODE     ---       #49
      01000D35H   LINE      CODE     ---       #50
      01000D35H   LINE      CODE     ---       #51
      01000D4EH   LINE      CODE     ---       #52
      01000D69H   LINE      CODE     ---       #53
      01000D81H   LINE      CODE     ---       #54
      01000D83H   LINE      CODE     ---       #56
      01000D83H   LINE      CODE     ---       #57
      01000DA4H   LINE      CODE     ---       #58
      01000DCEH   LINE      CODE     ---       #60
      01000DFBH   LINE      CODE     ---       #61
      01000DFBH   LINE      CODE     ---       #62
      01000DFEH   LINE      CODE     ---       #63
      ---         BLOCKEND  ---      ---       LVL=0

      01000F3DH   BLOCK     CODE     ---       LVL=0
      ---         BLOCKEND  ---      ---       LVL=0

      01000F46H   BLOCK     CODE     ---       LVL=0
      020000B4H   SYMBOL    PDATA    ---       buf
      020000B7H   SYMBOL    PDATA    BYTE      dec
      020000B8H   SYMBOL    PDATA    BYTE      i
      020000B9H   SYMBOL    PDATA    DWORD     res
      020000BDH   SYMBOL    PDATA    DWORD     var
      020000C1H   SYMBOL    PDATA    DWORD     temp
      01000F53H   BLOCK     CODE     NEAR LAB  LVL=1
      020000B8H   SYMBOL    PDATA    BYTE      i
      020000B9H   SYMBOL    PDATA    DWORD     res
      020000BDH   SYMBOL    PDATA    DWORD     var
      020000C1H   SYMBOL    PDATA    DWORD     temp
      ---         BLOCKEND  ---      ---       LVL=1
      01000F46H   LINE      CODE     ---       #67
      01000F53H   LINE      CODE     ---       #68
      01000F53H   LINE      CODE     ---       #70
      01000F65H   LINE      CODE     ---       #71
      01000F77H   LINE      CODE     ---       #72
      01000F77H   LINE      CODE     ---       #73
      01000FA9H   LINE      CODE     ---       #74
      01000FCBH   LINE      CODE     ---       #75
      01000FF6H   LINE      CODE     ---       #77
      01001011H   LINE      CODE     ---       #78
      01001019H   LINE      CODE     ---       #80
      01001026H   LINE      CODE     ---       #81
      ---         BLOCKEND  ---      ---       LVL=0

      01001027H   BLOCK     CODE     ---       LVL=0
      ---         BLOCKEND  ---      ---       LVL=0

      01001039H   BLOCK     CODE     ---       LVL=0
      00000001H   SYMBOL    DATA     ---       cmd
      020000B7H   SYMBOL    PDATA    DWORD     var
      020000BBH   SYMBOL    PDATA    BYTE      byte_width
      01001039H   LINE      CODE     ---       #84
LX51 LINKER/LOCATER V4.66.97.0                                                        12/02/2020  18:06:15  PAGE 18


      0100103EH   LINE      CODE     ---       #85
      0100103EH   LINE      CODE     ---       #86
      01001045H   LINE      CODE     ---       #87
      01001045H   LINE      CODE     ---       #88
      01001057H   LINE      CODE     ---       #89
      0100106DH   LINE      CODE     ---       #90
      01001084H   LINE      CODE     ---       #91
      0100108DH   LINE      CODE     ---       #92
      0100108FH   LINE      CODE     ---       #93
      01001098H   LINE      CODE     ---       #94
      01001098H   LINE      CODE     ---       #95
      010010A9H   LINE      CODE     ---       #96
      010010C0H   LINE      CODE     ---       #97
      010010C9H   LINE      CODE     ---       #98
      010010CBH   LINE      CODE     ---       #100
      010010CBH   LINE      CODE     ---       #101
      010010DDH   LINE      CODE     ---       #102
      010010E9H   LINE      CODE     ---       #103
      010010E9H   LINE      CODE     ---       #104
      ---         BLOCKEND  ---      ---       LVL=0

      0100063EH   BLOCK     CODE     ---       LVL=0
      020000ACH   SYMBOL    PDATA    DWORD     freq
      020000B0H   SYMBOL    PDATA    ---       cmd_msg
      0100064DH   BLOCK     CODE     NEAR LAB  LVL=1
      020000B3H   SYMBOL    PDATA    DWORD     ftw
      020000B7H   SYMBOL    PDATA    DWORD     div
      020000BBH   SYMBOL    PDATA    FLOAT     temp
      020000BFH   SYMBOL    PDATA    FLOAT     m
      020000C3H   SYMBOL    PDATA    FLOAT     n
      ---         BLOCKEND  ---      ---       LVL=1
      0100063EH   LINE      CODE     ---       #107
      0100064DH   LINE      CODE     ---       #108
      0100064DH   LINE      CODE     ---       #109
      01000655H   LINE      CODE     ---       #113
      0100066CH   LINE      CODE     ---       #114
      0100069BH   LINE      CODE     ---       #115
      010006ACH   LINE      CODE     ---       #116
      010006D7H   LINE      CODE     ---       #117
      010006F8H   LINE      CODE     ---       #118
      01000715H   LINE      CODE     ---       #119
      01000731H   LINE      CODE     ---       #120
      01000753H   LINE      CODE     ---       #121
      01000768H   LINE      CODE     ---       #122
      01000784H   LINE      CODE     ---       #123
      010007A3H   LINE      CODE     ---       #124
      010007BAH   LINE      CODE     ---       #125
      010007C6H   LINE      CODE     ---       #127
      010007DDH   LINE      CODE     ---       #128
      01000809H   LINE      CODE     ---       #129
      0100081AH   LINE      CODE     ---       #130
      01000845H   LINE      CODE     ---       #131
      01000866H   LINE      CODE     ---       #132
      01000883H   LINE      CODE     ---       #133
      0100089FH   LINE      CODE     ---       #134
      010008C1H   LINE      CODE     ---       #135
      010008D6H   LINE      CODE     ---       #136
      010008F5H   LINE      CODE     ---       #137
      0100090BH   LINE      CODE     ---       #138
      01000922H   LINE      CODE     ---       #139
      ---         BLOCKEND  ---      ---       LVL=0

LX51 LINKER/LOCATER V4.66.97.0                                                        12/02/2020  18:06:15  PAGE 19


      01001A5AH   BLOCK     CODE     ---       LVL=0
      00000007H   SYMBOL    DATA     BYTE      len
      01001A5AH   BLOCK     CODE     NEAR LAB  LVL=1
      00000006H   SYMBOL    DATA     BYTE      i
      ---         BLOCKEND  ---      ---       LVL=1
      01001A5AH   LINE      CODE     ---       #142
      01001A5AH   LINE      CODE     ---       #143
      01001A5AH   LINE      CODE     ---       #145
      01001A60H   LINE      CODE     ---       #146
      01001A6BH   LINE      CODE     ---       #147
      01001A7BH   LINE      CODE     ---       #148
      ---         BLOCKEND  ---      ---       LVL=0

      01000003H   BLOCK     CODE     ---       LVL=0
      01000003H   BLOCK     CODE     NEAR LAB  LVL=1
      00000007H   SYMBOL    DATA     BYTE      i
      ---         BLOCKEND  ---      ---       LVL=1
      01000003H   LINE      CODE     ---       #151
      01000003H   LINE      CODE     ---       #152
      01000003H   LINE      CODE     ---       #154
      01000007H   LINE      CODE     ---       #155
      01000012H   LINE      CODE     ---       #156
      0100001EH   LINE      CODE     ---       #157
      ---         BLOCKEND  ---      ---       LVL=0

      0100199CH   BLOCK     CODE     ---       LVL=0
      0100199CH   BLOCK     CODE     NEAR LAB  LVL=1
      00000007H   SYMBOL    DATA     BYTE      i
      ---         BLOCKEND  ---      ---       LVL=1
      0100199CH   LINE      CODE     ---       #159
      0100199CH   LINE      CODE     ---       #160
      0100199CH   LINE      CODE     ---       #161
      0100199EH   LINE      CODE     ---       #162
      010019B3H   LINE      CODE     ---       #163
      010019B3H   LINE      CODE     ---       #164
      010019D5H   LINE      CODE     ---       #168
      010019D5H   LINE      CODE     ---       #169
      010019D6H   LINE      CODE     ---       #170
      010019D8H   LINE      CODE     ---       #171
      010019D8H   LINE      CODE     ---       #173
      010019D8H   LINE      CODE     ---       #174
      010019D8H   LINE      CODE     ---       #176
      010019D8H   LINE      CODE     ---       #177
      ---         BLOCKEND  ---      ---       LVL=0

      01000B6EH   BLOCK     CODE     ---       LVL=0
      01000B6EH   BLOCK     CODE     NEAR LAB  LVL=1
      00000007H   SYMBOL    DATA     BYTE      len
      ---         BLOCKEND  ---      ---       LVL=1
      01000B6EH   LINE      CODE     ---       #180
      01000B6EH   LINE      CODE     ---       #181
      01000B6EH   LINE      CODE     ---       #187
      01000B7AH   LINE      CODE     ---       #188
      01000B7DH   LINE      CODE     ---       #190
      01000B84H   LINE      CODE     ---       #191
      01000B87H   LINE      CODE     ---       #193
      01000B8AH   LINE      CODE     ---       #194
      01000B8DH   LINE      CODE     ---       #195
      01000B8DH   LINE      CODE     ---       #196
      01000B96H   LINE      CODE     ---       #197
      01000B99H   LINE      CODE     ---       #198
      01000B99H   LINE      CODE     ---       #200
LX51 LINKER/LOCATER V4.66.97.0                                                        12/02/2020  18:06:15  PAGE 20


      01000BA5H   LINE      CODE     ---       #201
      01000BA5H   LINE      CODE     ---       #202
      01000BA5H   LINE      CODE     ---       #203
      01000BA8H   LINE      CODE     ---       #204
      01000BA8H   LINE      CODE     ---       #206
      01000BB4H   LINE      CODE     ---       #207
      01000BB4H   LINE      CODE     ---       #208
      01000BB4H   LINE      CODE     ---       #209
      01000BB7H   LINE      CODE     ---       #210
      01000BB7H   LINE      CODE     ---       #212
      01000BC3H   LINE      CODE     ---       #213
      01000BC3H   LINE      CODE     ---       #214
      01000BC3H   LINE      CODE     ---       #215
      01000BC6H   LINE      CODE     ---       #216
      01000BC6H   LINE      CODE     ---       #218
      01000BD2H   LINE      CODE     ---       #219
      01000BD2H   LINE      CODE     ---       #220
      01000BD2H   LINE      CODE     ---       #221
      01000BD5H   LINE      CODE     ---       #222
      01000BD5H   LINE      CODE     ---       #224
      01000BE1H   LINE      CODE     ---       #225
      01000BE1H   LINE      CODE     ---       #226
      01000BE1H   LINE      CODE     ---       #227
      01000BE4H   LINE      CODE     ---       #228
      01000BE4H   LINE      CODE     ---       #230
      01000BF0H   LINE      CODE     ---       #231
      01000BF0H   LINE      CODE     ---       #232
      01000BF0H   LINE      CODE     ---       #233
      01000BF3H   LINE      CODE     ---       #234
      01000BF3H   LINE      CODE     ---       #236
      01000BFFH   LINE      CODE     ---       #237
      01000BFFH   LINE      CODE     ---       #238
      01000BFFH   LINE      CODE     ---       #239
      01000C01H   LINE      CODE     ---       #240
      01000C01H   LINE      CODE     ---       #242
      01000C0DH   LINE      CODE     ---       #243
      01000C0DH   LINE      CODE     ---       #244
      01000C0DH   LINE      CODE     ---       #245
      01000C0FH   LINE      CODE     ---       #246
      01000C0FH   LINE      CODE     ---       #248
      01000C1DH   LINE      CODE     ---       #249
      01000C1DH   LINE      CODE     ---       #250
      01000C1DH   LINE      CODE     ---       #251
      01000C1FH   LINE      CODE     ---       #252
      01000C1FH   LINE      CODE     ---       #254
      01000C2DH   LINE      CODE     ---       #255
      01000C2DH   LINE      CODE     ---       #256
      01000C2DH   LINE      CODE     ---       #257
      01000C2FH   LINE      CODE     ---       #258
      01000C2FH   LINE      CODE     ---       #260
      01000C3DH   LINE      CODE     ---       #261
      01000C3DH   LINE      CODE     ---       #262
      01000C3DH   LINE      CODE     ---       #263
      01000C3FH   LINE      CODE     ---       #264
      01000C3FH   LINE      CODE     ---       #266
      01000C4DH   LINE      CODE     ---       #267
      01000C4DH   LINE      CODE     ---       #268
      01000C4DH   LINE      CODE     ---       #269
      01000C4FH   LINE      CODE     ---       #270
      01000C4FH   LINE      CODE     ---       #272
      01000C5DH   LINE      CODE     ---       #273
      01000C5DH   LINE      CODE     ---       #274
LX51 LINKER/LOCATER V4.66.97.0                                                        12/02/2020  18:06:15  PAGE 21


      01000C5DH   LINE      CODE     ---       #275
      01000C5FH   LINE      CODE     ---       #276
      01000C5FH   LINE      CODE     ---       #278
      01000C6DH   LINE      CODE     ---       #279
      01000C6DH   LINE      CODE     ---       #280
      01000C6DH   LINE      CODE     ---       #281
      01000C6FH   LINE      CODE     ---       #282
      01000C6FH   LINE      CODE     ---       #284
      01000C7BH   LINE      CODE     ---       #285
      01000C7BH   LINE      CODE     ---       #286
      01000C7EH   LINE      CODE     ---       #287
      01000C80H   LINE      CODE     ---       #288
      01000C80H   LINE      CODE     ---       #290
      01000C84H   LINE      CODE     ---       #292
      01000C9AH   LINE      CODE     ---       #293
      01000CC1H   LINE      CODE     ---       #294
      01000CC4H   LINE      CODE     ---       #296
      01000CC9H   LINE      CODE     ---       #297
      01000CCAH   LINE      CODE     ---       #298
      ---         BLOCKEND  ---      ---       LVL=0

      01001600H   BLOCK     CODE     ---       LVL=0
      00000001H   SYMBOL    DATA     ---       buf
      01001600H   BLOCK     CODE     NEAR LAB  LVL=1
      020000ACH   SYMBOL    PDATA    DWORD     var
      ---         BLOCKEND  ---      ---       LVL=1
      01001600H   LINE      CODE     ---       #300
      01001600H   LINE      CODE     ---       #301
      01001600H   LINE      CODE     ---       #304
      0100162DH   LINE      CODE     ---       #309
      01001630H   LINE      CODE     ---       #311
      01001641H   LINE      CODE     ---       #312
      0100165CH   LINE      CODE     ---       #313
      0100166EH   LINE      CODE     ---       #315
      01001670H   LINE      CODE     ---       #316
      ---         BLOCKEND  ---      ---       LVL=0

      0100125AH   BLOCK     CODE     ---       LVL=0
      00000001H   SYMBOL    DATA     ---       buf
      0100125AH   BLOCK     CODE     NEAR LAB  LVL=1
      020000ACH   SYMBOL    PDATA    DWORD     var
      ---         BLOCKEND  ---      ---       LVL=1
      0100125AH   LINE      CODE     ---       #318
      0100125AH   LINE      CODE     ---       #319
      0100125AH   LINE      CODE     ---       #322
      01001291H   LINE      CODE     ---       #328
      01001294H   LINE      CODE     ---       #330
      010012A5H   LINE      CODE     ---       #331
      010012C6H   LINE      CODE     ---       #332
      010012E1H   LINE      CODE     ---       #334
      010012F3H   LINE      CODE     ---       #335
      010012F5H   LINE      CODE     ---       #336
      ---         BLOCKEND  ---      ---       LVL=0

      01000E1CH   BLOCK     CODE     ---       LVL=0
      00000001H   SYMBOL    DATA     ---       buf
      01000E1CH   BLOCK     CODE     NEAR LAB  LVL=1
      020000ACH   SYMBOL    PDATA    DWORD     var
      020000B0H   SYMBOL    PDATA    FLOAT     fvar
      ---         BLOCKEND  ---      ---       LVL=1
      01000E1CH   LINE      CODE     ---       #338
      01000E1CH   LINE      CODE     ---       #339
LX51 LINKER/LOCATER V4.66.97.0                                                        12/02/2020  18:06:15  PAGE 22


      01000E1CH   LINE      CODE     ---       #343
      01000E49H   LINE      CODE     ---       #348
      01000E4CH   LINE      CODE     ---       #350
      01000E5DH   LINE      CODE     ---       #351
      01000E78H   LINE      CODE     ---       #353
      01000E9BH   LINE      CODE     ---       #354
      01000EB6H   LINE      CODE     ---       #356
      01000EDDH   LINE      CODE     ---       #357
      01000F04H   LINE      CODE     ---       #358
      01000F2AH   LINE      CODE     ---       #359
      01000F33H   LINE      CODE     ---       #361
      01000F37H   LINE      CODE     ---       #362
      01000F3AH   LINE      CODE     ---       #364
      01000F3CH   LINE      CODE     ---       #365
      ---         BLOCKEND  ---      ---       LVL=0

      0100179FH   BLOCK     CODE     ---       LVL=0
      00000001H   SYMBOL    DATA     ---       buf
      0100179FH   BLOCK     CODE     NEAR LAB  LVL=1
      00000004H   SYMBOL    DATA     DWORD     var
      ---         BLOCKEND  ---      ---       LVL=1
      0100179FH   LINE      CODE     ---       #367
      0100179FH   LINE      CODE     ---       #368
      0100179FH   LINE      CODE     ---       #371
      010017D6H   LINE      CODE     ---       #377
      010017D9H   LINE      CODE     ---       #379
      010017E5H   LINE      CODE     ---       #381
      010017F3H   LINE      CODE     ---       #383
      010017F5H   LINE      CODE     ---       #384
      ---         BLOCKEND  ---      ---       LVL=0

      010010EAH   BLOCK     CODE     ---       LVL=0
      00000001H   SYMBOL    DATA     ---       buf
      010010EAH   BLOCK     CODE     NEAR LAB  LVL=1
      020000ACH   SYMBOL    PDATA    DWORD     var
      ---         BLOCKEND  ---      ---       LVL=1
      010010EAH   LINE      CODE     ---       #386
      010010EAH   LINE      CODE     ---       #387
      010010EAH   LINE      CODE     ---       #390
      01001121H   LINE      CODE     ---       #396
      01001124H   LINE      CODE     ---       #399
      0100112CH   LINE      CODE     ---       #400
      01001146H   LINE      CODE     ---       #401
      0100114FH   LINE      CODE     ---       #402
      01001168H   LINE      CODE     ---       #403
      01001185H   LINE      CODE     ---       #405
      0100119CH   LINE      CODE     ---       #407
      010011A5H   LINE      CODE     ---       #408
      010011A7H   LINE      CODE     ---       #409
      010011A9H   LINE      CODE     ---       #410
      ---         BLOCKEND  ---      ---       LVL=0

      01001848H   BLOCK     CODE     ---       LVL=0
      00000001H   SYMBOL    DATA     ---       buf
      01001848H   LINE      CODE     ---       #412
      01001848H   LINE      CODE     ---       #413
      01001848H   LINE      CODE     ---       #414
      01001875H   LINE      CODE     ---       #419
      01001878H   LINE      CODE     ---       #421
      01001883H   LINE      CODE     ---       #422
      01001889H   LINE      CODE     ---       #423
      0100188DH   LINE      CODE     ---       #425
LX51 LINKER/LOCATER V4.66.97.0                                                        12/02/2020  18:06:15  PAGE 23


      0100188FH   LINE      CODE     ---       #426
      ---         BLOCKEND  ---      ---       LVL=0

      01001512H   BLOCK     CODE     ---       LVL=0
      00000001H   SYMBOL    DATA     ---       buf
      01001512H   LINE      CODE     ---       #428
      01001512H   LINE      CODE     ---       #429
      01001512H   LINE      CODE     ---       #430
      01001549H   LINE      CODE     ---       #436
      0100154CH   LINE      CODE     ---       #438
      01001552H   LINE      CODE     ---       #439
      0100155CH   LINE      CODE     ---       #440
      0100155CH   LINE      CODE     ---       #441
      01001562H   LINE      CODE     ---       #442
      01001564H   LINE      CODE     ---       #443
      01001568H   LINE      CODE     ---       #444
      01001568H   LINE      CODE     ---       #445
      0100156EH   LINE      CODE     ---       #446
      01001570H   LINE      CODE     ---       #447
      0100157AH   LINE      CODE     ---       #448
      0100157AH   LINE      CODE     ---       #449
      01001580H   LINE      CODE     ---       #450
      01001582H   LINE      CODE     ---       #451
      01001586H   LINE      CODE     ---       #452
      01001586H   LINE      CODE     ---       #453
      0100158CH   LINE      CODE     ---       #454
      0100158CH   LINE      CODE     ---       #456
      0100158EH   LINE      CODE     ---       #457
      ---         BLOCKEND  ---      ---       LVL=0

      01001671H   BLOCK     CODE     ---       LVL=0
      00000001H   SYMBOL    DATA     ---       buf
      01001671H   BLOCK     CODE     NEAR LAB  LVL=1
      020000ACH   SYMBOL    PDATA    DWORD     var
      ---         BLOCKEND  ---      ---       LVL=1
      01001671H   LINE      CODE     ---       #459
      01001671H   LINE      CODE     ---       #460
      01001671H   LINE      CODE     ---       #464
      0100169EH   LINE      CODE     ---       #469
      010016A1H   LINE      CODE     ---       #471
      010016B2H   LINE      CODE     ---       #472
      010016CDH   LINE      CODE     ---       #473
      010016D6H   LINE      CODE     ---       #475
      010016D8H   LINE      CODE     ---       #476
      ---         BLOCKEND  ---      ---       LVL=0

      010018D6H   BLOCK     CODE     ---       LVL=0
      00000001H   SYMBOL    DATA     ---       buf
      020000ACH   SYMBOL    PDATA    BYTE      index
      010018DAH   BLOCK     CODE     NEAR LAB  LVL=1
      00000004H   SYMBOL    DATA     DWORD     var
      ---         BLOCKEND  ---      ---       LVL=1
      010018D6H   LINE      CODE     ---       #478
      010018DAH   LINE      CODE     ---       #479
      010018DAH   LINE      CODE     ---       #482
      01001907H   LINE      CODE     ---       #488
      0100190AH   LINE      CODE     ---       #490
      0100190DH   LINE      CODE     ---       #499
      01001915H   LINE      CODE     ---       #501
      01001917H   LINE      CODE     ---       #502
      ---         BLOCKEND  ---      ---       LVL=0

LX51 LINKER/LOCATER V4.66.97.0                                                        12/02/2020  18:06:15  PAGE 24


      01001918H   BLOCK     CODE     ---       LVL=0
      00000001H   SYMBOL    DATA     ---       buf
      020000ACH   SYMBOL    PDATA    BYTE      index
      0100191CH   BLOCK     CODE     NEAR LAB  LVL=1
      00000004H   SYMBOL    DATA     DWORD     var
      ---         BLOCKEND  ---      ---       LVL=1
      01001918H   LINE      CODE     ---       #504
      0100191CH   LINE      CODE     ---       #505
      0100191CH   LINE      CODE     ---       #508
      01001949H   LINE      CODE     ---       #514
      0100194CH   LINE      CODE     ---       #516
      0100194FH   LINE      CODE     ---       #517
      01001957H   LINE      CODE     ---       #519
      01001959H   LINE      CODE     ---       #520
      ---         BLOCKEND  ---      ---       LVL=0

      0100195AH   BLOCK     CODE     ---       LVL=0
      00000001H   SYMBOL    DATA     ---       buf
      0100195AH   BLOCK     CODE     NEAR LAB  LVL=1
      00000004H   SYMBOL    DATA     DWORD     var
      ---         BLOCKEND  ---      ---       LVL=1
      0100195AH   LINE      CODE     ---       #522
      0100195AH   LINE      CODE     ---       #523
      0100195AH   LINE      CODE     ---       #527
      01001987H   LINE      CODE     ---       #532
      0100198AH   LINE      CODE     ---       #534
      01001990H   LINE      CODE     ---       #538
      01001999H   LINE      CODE     ---       #540
      0100199BH   LINE      CODE     ---       #541
      ---         BLOCKEND  ---      ---       LVL=0

      ---         MODULE    ---      ---       STA
      00000008H   PUBLIC    IDATA    ---       sta_msg
      020000E7H   PUBLIC    PDATA    FLOAT     temperature
      020000E3H   PUBLIC    PDATA    FLOAT     bite
      020000E2H   PUBLIC    PDATA    BYTE      sta_msg_len
      010011AAH   PUBLIC    CODE     ---       UpdateSta
      01001A7CH   PUBLIC    CODE     ---       UpdateFrame
      01001890H   PUBLIC    CODE     ---       _Bite_Convert
      01001492H   PUBLIC    CODE     ---       _Teamperature_Convert
      01000942H   PUBLIC    CODE     ---       _Float_Format

      0100092EH   BLOCK     CODE     ---       LVL=0
      ---         BLOCKEND  ---      ---       LVL=0

      01000942H   BLOCK     CODE     ---       LVL=0
      020000ACH   SYMBOL    PDATA    FLOAT     var
      020000B0H   SYMBOL    PDATA    ---       pBuf
      020000B3H   SYMBOL    PDATA    WORD      byte
      020000B5H   SYMBOL    PDATA    BYTE      index
      01000951H   BLOCK     CODE     NEAR LAB  LVL=1
      020000B3H   SYMBOL    PDATA    WORD      byte
      020000B5H   SYMBOL    PDATA    BYTE      index
      ---         BLOCKEND  ---      ---       LVL=1
      01000942H   LINE      CODE     ---       #18
      01000951H   LINE      CODE     ---       #19
      01000951H   LINE      CODE     ---       #21
      01000955H   LINE      CODE     ---       #24
      0100096CH   LINE      CODE     ---       #25
      0100096CH   LINE      CODE     ---       #26
      01000980H   LINE      CODE     ---       #27
      01000980H   LINE      CODE     ---       #28
LX51 LINKER/LOCATER V4.66.97.0                                                        12/02/2020  18:06:15  PAGE 25


      01000982H   LINE      CODE     ---       #30
      01000982H   LINE      CODE     ---       #31
      010009A7H   LINE      CODE     ---       #32
      010009AAH   LINE      CODE     ---       #33
      010009AAH   LINE      CODE     ---       #34
      010009C6H   LINE      CODE     ---       #35
      010009CBH   LINE      CODE     ---       #36
      010009CBH   LINE      CODE     ---       #37
      010009CBH   LINE      CODE     ---       #40
      01000A0EH   LINE      CODE     ---       #41
      01000A33H   LINE      CODE     ---       #42
      01000A36H   LINE      CODE     ---       #43
      01000A36H   LINE      CODE     ---       #44
      01000A52H   LINE      CODE     ---       #45
      01000A57H   LINE      CODE     ---       #46
      01000A57H   LINE      CODE     ---       #49
      01000A9AH   LINE      CODE     ---       #50
      01000AB1H   LINE      CODE     ---       #51
      01000ACDH   LINE      CODE     ---       #52
      01000AD2H   LINE      CODE     ---       #55
      01000ADDH   LINE      CODE     ---       #56
      01000AE2H   LINE      CODE     ---       #59
      01000B1AH   LINE      CODE     ---       #60
      01000B36H   LINE      CODE     ---       #61
      01000B4DH   LINE      CODE     ---       #62
      01000B66H   LINE      CODE     ---       #63
      01000B6BH   LINE      CODE     ---       #65
      01000B6DH   LINE      CODE     ---       #66
      ---         BLOCKEND  ---      ---       LVL=0

      01001492H   BLOCK     CODE     ---       LVL=0
      00000006H   SYMBOL    DATA     WORD      adc_var
      01001492H   LINE      CODE     ---       #68
      01001492H   LINE      CODE     ---       #69
      01001492H   LINE      CODE     ---       #70
      0100149FH   LINE      CODE     ---       #71
      010014BBH   LINE      CODE     ---       #72
      010014D8H   LINE      CODE     ---       #73
      010014F5H   LINE      CODE     ---       #74
      ---         BLOCKEND  ---      ---       LVL=0

      01001890H   BLOCK     CODE     ---       LVL=0
      00000006H   SYMBOL    DATA     WORD      adc_var
      01001890H   LINE      CODE     ---       #77
      01001890H   LINE      CODE     ---       #78
      01001890H   LINE      CODE     ---       #79
      0100189DH   LINE      CODE     ---       #80
      010018BAH   LINE      CODE     ---       #81
      ---         BLOCKEND  ---      ---       LVL=0

      01001A7CH   BLOCK     CODE     ---       LVL=0
      01001A7CH   BLOCK     CODE     NEAR LAB  LVL=1
      00000007H   SYMBOL    DATA     BYTE      i
      ---         BLOCKEND  ---      ---       LVL=1
      01001A7CH   LINE      CODE     ---       #86
      01001A7CH   LINE      CODE     ---       #87
      01001A7CH   LINE      CODE     ---       #89
      01001A88H   LINE      CODE     ---       #90
      01001A97H   LINE      CODE     ---       #91
      ---         BLOCKEND  ---      ---       LVL=0

      010011AAH   BLOCK     CODE     ---       LVL=0
LX51 LINKER/LOCATER V4.66.97.0                                                        12/02/2020  18:06:15  PAGE 26


      010011AAH   BLOCK     CODE     NEAR LAB  LVL=1
      00000007H   SYMBOL    DATA     BYTE      len
      ---         BLOCKEND  ---      ---       LVL=1
      010011AAH   LINE      CODE     ---       #93
      010011AAH   LINE      CODE     ---       #94
      010011AAH   LINE      CODE     ---       #97
      010011AFH   LINE      CODE     ---       #99
      010011B9H   LINE      CODE     ---       #100
      010011C5H   LINE      CODE     ---       #101
      010011D1H   LINE      CODE     ---       #102
      010011DDH   LINE      CODE     ---       #104
      010011E2H   LINE      CODE     ---       #105
      010011E7H   LINE      CODE     ---       #107
      010011F1H   LINE      CODE     ---       #109
      010011FDH   LINE      CODE     ---       #110
      01001209H   LINE      CODE     ---       #111
      01001215H   LINE      CODE     ---       #112
      01001221H   LINE      CODE     ---       #114
      01001226H   LINE      CODE     ---       #115
      0100122BH   LINE      CODE     ---       #117
      01001235H   LINE      CODE     ---       #118
      01001241H   LINE      CODE     ---       #119
      0100124DH   LINE      CODE     ---       #120
      01001259H   LINE      CODE     ---       #121
      ---         BLOCKEND  ---      ---       LVL=0

      ---         MODULE    ---      ---       ?C_STARTUP
      01000000H   PUBLIC    CODE     NEAR LAB  ?C_STARTUP
      000000E0H   SFRSYM    DATA     BYTE      ACC
      000000F0H   SFRSYM    DATA     BYTE      B
      00000083H   SFRSYM    DATA     BYTE      DPH
      00000082H   SFRSYM    DATA     BYTE      DPL
      000000A0H   SFRSYM    DATA     BYTE      PPAGE_SFR
      00000081H   SFRSYM    DATA     BYTE      SP
      00000000H   SYMBOL    NUMBER   ---       IBPSTACK
      00000100H   SYMBOL    NUMBER   ---       IBPSTACKTOP
      00000080H   SYMBOL    NUMBER   ---       IDATALEN
      010012FCH   SYMBOL    CODE     NEAR LAB  IDATALOOP
      00000000H   SYMBOL    NUMBER   ---       PBPSTACK
      00000100H   SYMBOL    NUMBER   ---       PBPSTACKTOP
      00000000H   SYMBOL    NUMBER   ---       PDATALEN
      00000000H   SYMBOL    NUMBER   ---       PDATASTART
      00000000H   SYMBOL    NUMBER   ---       PPAGE
      00000000H   SYMBOL    NUMBER   ---       PPAGEENABLE
      010012F6H   SYMBOL    CODE     NEAR LAB  STARTUP1
      00000000H   SYMBOL    NUMBER   ---       XBPSTACK
      00010000H   SYMBOL    NUMBER   ---       XBPSTACKTOP
      00000000H   SYMBOL    NUMBER   ---       XDATALEN
      00000000H   SYMBOL    NUMBER   ---       XDATASTART

      01000000H   BLOCK     CODE     NEAR LAB  LVL=0
      01000000H   LINE      CODE     ---       #126
      ---         BLOCKEND  ---      ---       LVL=0

      010012F6H   BLOCK     CODE     NEAR LAB  LVL=0
      010012F6H   LINE      CODE     ---       #134
      010012F9H   LINE      CODE     ---       #138
      010012FBH   LINE      CODE     ---       #139
      010012FCH   LINE      CODE     ---       #140
      010012FDH   LINE      CODE     ---       #141
      010012FFH   LINE      CODE     ---       #190
      01001302H   LINE      CODE     ---       #201
LX51 LINKER/LOCATER V4.66.97.0                                                        12/02/2020  18:06:15  PAGE 27


      ---         BLOCKEND  ---      ---       LVL=0

      ---         MODULE    ---      ---       ADC
      020000F1H   PUBLIC    PDATA    CHAR      adc_covert_completed
      01001A11H   PUBLIC    CODE     ---       _ADC_Start
      01001A36H   PUBLIC    CODE     ---       _ADC_Get
      01001ACAH   PUBLIC    CODE     ---       ADC_Init
      000000A2H   SFRSYM    DATA     BYTE      SPI0CKR
      00000080H   SFRSYM    DATA     BYTE      P0
      000000D0H.2 SFRSYM    DATA     BIT       PSW_OV
      000000D8H.7 SFRSYM    DATA     BIT       PCA0CN_CF
      00000090H   SFRSYM    DATA     BYTE      P1
      000000F8H.4 SFRSYM    DATA     BIT       SPI0CN_RXOVRN
      000000A0H   SFRSYM    DATA     BYTE      P2
      000000B0H   SFRSYM    DATA     BYTE      P3
      000000BCH   SFRSYM    DATA     BYTE      ADC0CF
      000000E8H.7 SFRSYM    DATA     BIT       ADC0CN_ADEN
      000000F9H   SFRSYM    DATA     WORD      PCA0
      000000E6H   SFRSYM    DATA     BYTE      EIE1
      0000008FH   SFRSYM    DATA     BYTE      PSCTL
      000000E4H   SFRSYM    DATA     BYTE      IT01CF
      000000E8H   SFRSYM    DATA     BYTE      ADC0CN
      000000A4H   SFRSYM    DATA     BYTE      P0MDOUT
      000000D8H.6 SFRSYM    DATA     BIT       PCA0CN_CR
      000000A5H   SFRSYM    DATA     BYTE      P1MDOUT
      000000CBH   SFRSYM    DATA     BYTE      TMR2RLH
      000000A6H   SFRSYM    DATA     BYTE      P2MDOUT
      000000A8H   SFRSYM    DATA     BYTE      IE
      00000093H   SFRSYM    DATA     BYTE      TMR3RLH
      000000A7H   SFRSYM    DATA     BYTE      P3MDOUT
      000000F6H   SFRSYM    DATA     BYTE      EIP1
      000000F8H.0 SFRSYM    DATA     BIT       SPI0CN_SPIEN
      00000098H.2 SFRSYM    DATA     BIT       SCON0_RB8
      000000CAH   SFRSYM    DATA     BYTE      TMR2RLL
      000000FCH   SFRSYM    DATA     BYTE      PCA0CPH0
      000000E8H.6 SFRSYM    DATA     BIT       ADC0CN_ADTM
      00000092H   SFRSYM    DATA     BYTE      TMR3RLL
      000000EAH   SFRSYM    DATA     BYTE      PCA0CPH1
      00000098H.3 SFRSYM    DATA     BIT       SCON0_TB8
      000000F0H.0 SFRSYM    DATA     BIT       B_B0
      00000082H   SFRSYM    DATA     WORD      DP
      000000ECH   SFRSYM    DATA     BYTE      PCA0CPH2
      000000F0H.1 SFRSYM    DATA     BIT       B_B1
      000000C3H   SFRSYM    DATA     WORD      ADC0GT
      000000EEH   SFRSYM    DATA     BYTE      PCA0CPH3
      000000F0H.2 SFRSYM    DATA     BIT       B_B2
      000000FBH   SFRSYM    DATA     BYTE      PCA0CPL0
      000000FEH   SFRSYM    DATA     BYTE      PCA0CPH4
      000000F0H.3 SFRSYM    DATA     BIT       B_B3
      000000D9H   SFRSYM    DATA     BYTE      PCA0MD
      000000DAH   SFRSYM    DATA     BYTE      PCA0CPM0
      000000E9H   SFRSYM    DATA     BYTE      PCA0CPL1
      000000D8H   SFRSYM    DATA     BYTE      PCA0CN
      000000F0H.4 SFRSYM    DATA     BIT       B_B4
      000000DBH   SFRSYM    DATA     BYTE      PCA0CPM1
      000000EBH   SFRSYM    DATA     BYTE      PCA0CPL2
      000000F0H.5 SFRSYM    DATA     BIT       B_B5
      000000DCH   SFRSYM    DATA     BYTE      PCA0CPM2
      000000EDH   SFRSYM    DATA     BYTE      PCA0CPL3
      000000B8H   SFRSYM    DATA     BYTE      IP
      000000F0H.6 SFRSYM    DATA     BIT       B_B6
      000000C5H   SFRSYM    DATA     WORD      ADC0LT
LX51 LINKER/LOCATER V4.66.97.0                                                        12/02/2020  18:06:15  PAGE 28


      000000DDH   SFRSYM    DATA     BYTE      PCA0CPM3
      000000FDH   SFRSYM    DATA     BYTE      PCA0CPL4
      00000098H.5 SFRSYM    DATA     BIT       SCON0_MCE
      000000F0H.7 SFRSYM    DATA     BIT       B_B7
      000000DEH   SFRSYM    DATA     BYTE      PCA0CPM4
      000000E1H   SFRSYM    DATA     BYTE      XBR0
      000000C1H   SFRSYM    DATA     BYTE      SMB0CF
      000000E2H   SFRSYM    DATA     BYTE      XBR1
      000000AAH   SFRSYM    DATA     BYTE      EMI0CN
      000000C0H.2 SFRSYM    DATA     BIT       SMB0CN_ARBLOST
      000000E0H.0 SFRSYM    DATA     BIT       ACC_ACC0
      000000D1H   SFRSYM    DATA     BYTE      REF0CN
      000000F8H.1 SFRSYM    DATA     BIT       SPI0CN_TXBMT
      000000E0H.1 SFRSYM    DATA     BIT       ACC_ACC1
      000000C0H.0 SFRSYM    DATA     BIT       SMB0CN_SI
      000000E0H.2 SFRSYM    DATA     BIT       ACC_ACC2
      000000E0H.3 SFRSYM    DATA     BIT       ACC_ACC3
      00000081H   SFRSYM    DATA     BYTE      SP
      000000E0H.4 SFRSYM    DATA     BIT       ACC_ACC4
      000000E0H.5 SFRSYM    DATA     BIT       ACC_ACC5
      000000C0H   SFRSYM    DATA     BYTE      SMB0CN
      000000E0H.6 SFRSYM    DATA     BIT       ACC_ACC6
      000000CCH   SFRSYM    DATA     WORD      TMR2
      000000E0H.7 SFRSYM    DATA     BIT       ACC_ACC7
      00000094H   SFRSYM    DATA     WORD      TMR3
      000000FFH   SFRSYM    DATA     BYTE      VDM0CN
      000000F1H   SFRSYM    DATA     BYTE      P0MDIN
      0000009DH   SFRSYM    DATA     BYTE      CPT0MD
      0000009BH   SFRSYM    DATA     BYTE      CPT0CN
      00000098H.4 SFRSYM    DATA     BIT       SCON0_REN
      000000F2H   SFRSYM    DATA     BYTE      P1MDIN
      0000009CH   SFRSYM    DATA     BYTE      CPT1MD
      0000009AH   SFRSYM    DATA     BYTE      CPT1CN
      000000F3H   SFRSYM    DATA     BYTE      P2MDIN
      000000F4H   SFRSYM    DATA     BYTE      P3MDIN
      000000C8H.7 SFRSYM    DATA     BIT       TMR2CN_TF2H
      000000C8H.3 SFRSYM    DATA     BIT       TMR2CN_T2SPLIT
      000000F8H   SFRSYM    DATA     BYTE      SPI0CN
      000000D0H.3 SFRSYM    DATA     BIT       PSW_RS0
      00000087H   SFRSYM    DATA     BYTE      PCON
      000000C8H.6 SFRSYM    DATA     BIT       TMR2CN_TF2L
      000000D0H.4 SFRSYM    DATA     BIT       PSW_RS1
      000000E8H.0 SFRSYM    DATA     BIT       ADC0CN_ADCM0
      000000E8H.1 SFRSYM    DATA     BIT       ADC0CN_ADCM1
      000000E8H.2 SFRSYM    DATA     BIT       ADC0CN_ADCM2
      000000E8H.3 SFRSYM    DATA     BIT       ADC0CN_ADWINT
      00000089H   SFRSYM    DATA     BYTE      TMOD
      00000088H   SFRSYM    DATA     BYTE      TCON
      000000E8H.4 SFRSYM    DATA     BIT       ADC0CN_ADBUSY
      000000F8H.5 SFRSYM    DATA     BIT       SPI0CN_MODF
      000000D0H.0 SFRSYM    DATA     BIT       PSW_PARITY
      000000A8H.4 SFRSYM    DATA     BIT       IE_ES0
      000000A8H.1 SFRSYM    DATA     BIT       IE_ET0
      000000C8H   SFRSYM    DATA     BYTE      TMR2CN
      000000A8H.3 SFRSYM    DATA     BIT       IE_ET1
      00000091H   SFRSYM    DATA     BYTE      TMR3CN
      000000D4H   SFRSYM    DATA     BYTE      P0SKIP
      000000A8H.5 SFRSYM    DATA     BIT       IE_ET2
      000000D5H   SFRSYM    DATA     BYTE      P1SKIP
      000000D6H   SFRSYM    DATA     BYTE      P2SKIP
      000000A8H.0 SFRSYM    DATA     BIT       IE_EX0
      000000A8H.2 SFRSYM    DATA     BIT       IE_EX1
LX51 LINKER/LOCATER V4.66.97.0                                                        12/02/2020  18:06:15  PAGE 29


      0000009FH   SFRSYM    DATA     BYTE      CPT0MX
      00000098H.7 SFRSYM    DATA     BIT       SCON0_SMODE
      000000B3H   SFRSYM    DATA     BYTE      OSCICL
      0000009EH   SFRSYM    DATA     BYTE      CPT1MX
      000000A9H   SFRSYM    DATA     BYTE      CLKSEL
      000000B2H   SFRSYM    DATA     BYTE      OSCICN
      000000F0H   SFRSYM    DATA     BYTE      B
      000000BEH   SFRSYM    DATA     BYTE      ADC0H
      000000F8H.7 SFRSYM    DATA     BIT       SPI0CN_SPIF
      000000CAH   SFRSYM    DATA     WORD      TMR2RL
      000000BDH   SFRSYM    DATA     BYTE      ADC0L
      000000C8H.5 SFRSYM    DATA     BIT       TMR2CN_TF2LEN
      000000F8H.6 SFRSYM    DATA     BIT       SPI0CN_WCOL
      00000092H   SFRSYM    DATA     WORD      TMR3RL
      000000F8H.2 SFRSYM    DATA     BIT       SPI0CN_NSSMD0
      000000E0H   SFRSYM    DATA     BYTE      ACC
      000000F8H.3 SFRSYM    DATA     BIT       SPI0CN_NSSMD1
      000000FBH   SFRSYM    DATA     WORD      PCA0CP0
      000000E9H   SFRSYM    DATA     WORD      PCA0CP1
      000000EBH   SFRSYM    DATA     WORD      PCA0CP2
      000000EDH   SFRSYM    DATA     WORD      PCA0CP3
      0000008CH   SFRSYM    DATA     BYTE      TH0
      000000B8H.4 SFRSYM    DATA     BIT       IP_PS0
      000000FDH   SFRSYM    DATA     WORD      PCA0CP4
      0000008DH   SFRSYM    DATA     BYTE      TH1
      000000FAH   SFRSYM    DATA     BYTE      PCA0H
      000000B8H.1 SFRSYM    DATA     BIT       IP_PT0
      000000B8H.3 SFRSYM    DATA     BIT       IP_PT1
      000000B8H.5 SFRSYM    DATA     BIT       IP_PT2
      0000008AH   SFRSYM    DATA     BYTE      TL0
      000000B1H   SFRSYM    DATA     BYTE      OSCXCN
      000000D0H.5 SFRSYM    DATA     BIT       PSW_F0
      000000A8H.6 SFRSYM    DATA     BIT       IE_ESPI0
      0000008BH   SFRSYM    DATA     BYTE      TL1
      000000F9H   SFRSYM    DATA     BYTE      PCA0L
      000000D0H.1 SFRSYM    DATA     BIT       PSW_F1
      00000080H.0 SFRSYM    DATA     BIT       P0_B0
      000000B8H.0 SFRSYM    DATA     BIT       IP_PX0
      000000C8H.0 SFRSYM    DATA     BIT       TMR2CN_T2XCLK
      00000090H.0 SFRSYM    DATA     BIT       P1_B0
      00000080H.1 SFRSYM    DATA     BIT       P0_B1
      000000B8H.2 SFRSYM    DATA     BIT       IP_PX1
      00000088H.1 SFRSYM    DATA     BIT       TCON_IE0
      000000C0H.7 SFRSYM    DATA     BIT       SMB0CN_MASTER
      000000A0H.0 SFRSYM    DATA     BIT       P2_B0
      00000090H.1 SFRSYM    DATA     BIT       P1_B1
      00000080H.2 SFRSYM    DATA     BIT       P0_B2
      00000088H.3 SFRSYM    DATA     BIT       TCON_IE1
      000000C0H.1 SFRSYM    DATA     BIT       SMB0CN_ACK
      000000B0H.0 SFRSYM    DATA     BIT       P3_B0
      000000A0H.1 SFRSYM    DATA     BIT       P2_B1
      00000090H.2 SFRSYM    DATA     BIT       P1_B2
      00000080H.3 SFRSYM    DATA     BIT       P0_B3
      000000B0H.1 SFRSYM    DATA     BIT       P3_B1
      000000A0H.2 SFRSYM    DATA     BIT       P2_B2
      00000090H.3 SFRSYM    DATA     BIT       P1_B3
      00000080H.4 SFRSYM    DATA     BIT       P0_B4
      000000B0H.2 SFRSYM    DATA     BIT       P3_B2
      000000A0H.3 SFRSYM    DATA     BIT       P2_B3
      00000090H.4 SFRSYM    DATA     BIT       P1_B4
      00000080H.5 SFRSYM    DATA     BIT       P0_B5
      000000B0H.3 SFRSYM    DATA     BIT       P3_B3
LX51 LINKER/LOCATER V4.66.97.0                                                        12/02/2020  18:06:15  PAGE 30


      000000A0H.4 SFRSYM    DATA     BIT       P2_B4
      00000090H.5 SFRSYM    DATA     BIT       P1_B5
      00000080H.6 SFRSYM    DATA     BIT       P0_B6
      000000C0H.6 SFRSYM    DATA     BIT       SMB0CN_TXMODE
      000000B0H.4 SFRSYM    DATA     BIT       P3_B4
      000000A0H.5 SFRSYM    DATA     BIT       P2_B5
      00000090H.6 SFRSYM    DATA     BIT       P1_B6
      00000080H.7 SFRSYM    DATA     BIT       P0_B7
      000000A0H.6 SFRSYM    DATA     BIT       P2_B6
      00000090H.7 SFRSYM    DATA     BIT       P1_B7
      000000A0H.7 SFRSYM    DATA     BIT       P2_B7
      00000083H   SFRSYM    DATA     BYTE      DPH
      000000E8H.5 SFRSYM    DATA     BIT       ADC0CN_ADINT
      000000C4H   SFRSYM    DATA     BYTE      ADC0GTH
      000000D0H.6 SFRSYM    DATA     BIT       PSW_AC
      00000088H.5 SFRSYM    DATA     BIT       TCON_TF0
      00000098H.0 SFRSYM    DATA     BIT       SCON0_RI
      00000082H   SFRSYM    DATA     BYTE      DPL
      00000088H.7 SFRSYM    DATA     BIT       TCON_TF1
      00000099H   SFRSYM    DATA     BYTE      SBUF0
      000000C3H   SFRSYM    DATA     BYTE      ADC0GTL
      00000098H.1 SFRSYM    DATA     BIT       SCON0_TI
      000000C6H   SFRSYM    DATA     BYTE      ADC0LTH
      00000088H.0 SFRSYM    DATA     BIT       TCON_IT0
      000000EFH   SFRSYM    DATA     BYTE      RSTSRC
      00000088H.2 SFRSYM    DATA     BIT       TCON_IT1
      00000098H   SFRSYM    DATA     BYTE      SCON0
      000000BAH   SFRSYM    DATA     BYTE      AMX0N
      000000C5H   SFRSYM    DATA     BYTE      ADC0LTL
      000000B8H.6 SFRSYM    DATA     BIT       IP_PSPI0
      000000BBH   SFRSYM    DATA     BYTE      AMX0P
      00000088H.4 SFRSYM    DATA     BIT       TCON_TR0
      00000088H.6 SFRSYM    DATA     BIT       TCON_TR1
      000000C2H   SFRSYM    DATA     BYTE      SMB0DAT
      000000C0H.5 SFRSYM    DATA     BIT       SMB0CN_STA
      000000CDH   SFRSYM    DATA     BYTE      TMR2H
      000000A1H   SFRSYM    DATA     BYTE      SPI0CFG
      00000095H   SFRSYM    DATA     BYTE      TMR3H
      0000008EH   SFRSYM    DATA     BYTE      CKCON
      000000C8H.2 SFRSYM    DATA     BIT       TMR2CN_TR2
      000000CCH   SFRSYM    DATA     BYTE      TMR2L
      00000094H   SFRSYM    DATA     BYTE      TMR3L
      000000D8H.0 SFRSYM    DATA     BIT       PCA0CN_CCF0
      000000A8H.7 SFRSYM    DATA     BIT       IE_EA
      000000D8H.1 SFRSYM    DATA     BIT       PCA0CN_CCF1
      000000B6H   SFRSYM    DATA     BYTE      FLSCL
      000000D8H.2 SFRSYM    DATA     BIT       PCA0CN_CCF2
      000000D0H.7 SFRSYM    DATA     BIT       PSW_CY
      000000D8H.3 SFRSYM    DATA     BIT       PCA0CN_CCF3
      000000A3H   SFRSYM    DATA     BYTE      SPI0DAT
      000000D8H.4 SFRSYM    DATA     BIT       PCA0CN_CCF4
      000000BDH   SFRSYM    DATA     WORD      ADC0
      000000C0H.3 SFRSYM    DATA     BIT       SMB0CN_ACKRQ
      000000D0H   SFRSYM    DATA     BYTE      PSW
      000000C0H.4 SFRSYM    DATA     BIT       SMB0CN_STO
      000000B7H   SFRSYM    DATA     BYTE      FLKEY

      01001ACAH   BLOCK     CODE     ---       LVL=0
      01001ACAH   LINE      CODE     ---       #12
      01001ACAH   LINE      CODE     ---       #13
      01001ACAH   LINE      CODE     ---       #15
      01001ACDH   LINE      CODE     ---       #17
LX51 LINKER/LOCATER V4.66.97.0                                                        12/02/2020  18:06:15  PAGE 31


      01001AD0H   LINE      CODE     ---       #19
      01001AD3H   LINE      CODE     ---       #21
      01001AD6H   LINE      CODE     ---       #23
      01001AD9H   LINE      CODE     ---       #24
      ---         BLOCKEND  ---      ---       LVL=0

      01001A36H   BLOCK     CODE     ---       LVL=0
      00000001H   SYMBOL    DATA     ---       pVar
      01001A36H   BLOCK     CODE     NEAR LAB  LVL=1
      00000006H   SYMBOL    DATA     WORD      adc_var
      ---         BLOCKEND  ---      ---       LVL=1
      01001A36H   LINE      CODE     ---       #27
      01001A36H   LINE      CODE     ---       #28
      01001A36H   LINE      CODE     ---       #31
      01001A3EH   LINE      CODE     ---       #32
      01001A3EH   LINE      CODE     ---       #33
      01001A40H   LINE      CODE     ---       #34
      01001A44H   LINE      CODE     ---       #35
      01001A4BH   LINE      CODE     ---       #37
      01001A50H   LINE      CODE     ---       #41
      01001A55H   LINE      CODE     ---       #42
      01001A57H   LINE      CODE     ---       #43
      01001A57H   LINE      CODE     ---       #44
      01001A59H   LINE      CODE     ---       #45
      ---         BLOCKEND  ---      ---       LVL=0

      01001A11H   BLOCK     CODE     ---       LVL=0
      00000007H   SYMBOL    DATA     CHAR      target
      01001A11H   LINE      CODE     ---       #47
      01001A11H   LINE      CODE     ---       #48
      01001A11H   LINE      CODE     ---       #49
      01001A1FH   LINE      CODE     ---       #52
      01001A26H   LINE      CODE     ---       #53
      01001A2BH   LINE      CODE     ---       #54
      01001A2EH   LINE      CODE     ---       #57
      01001A31H   LINE      CODE     ---       #59
      01001A35H   LINE      CODE     ---       #60
      ---         BLOCKEND  ---      ---       LVL=0

      ---         MODULE    ---      ---       SPI
      020000F0H   PUBLIC    PDATA    BYTE      spi_cmd_send_count
      020000EFH   PUBLIC    PDATA    BYTE      spi_cmd_send_complete
      01001AF4H   PUBLIC    CODE     ---       SPI_Send
      010019D9H   PUBLIC    CODE     ---       SPI0_Interrupt
      01000026H   PUBLIC    CODE     ---       SPI_Init
      010016D9H   PUBLIC    CODE     ---       SPI_GetClockRate
      000000A2H   SFRSYM    DATA     BYTE      SPI0CKR
      00000080H   SFRSYM    DATA     BYTE      P0
      000000D0H.2 SFRSYM    DATA     BIT       PSW_OV
      000000D8H.7 SFRSYM    DATA     BIT       PCA0CN_CF
      00000090H   SFRSYM    DATA     BYTE      P1
      000000F8H.4 SFRSYM    DATA     BIT       SPI0CN_RXOVRN
      000000A0H   SFRSYM    DATA     BYTE      P2
      000000B0H   SFRSYM    DATA     BYTE      P3
      000000BCH   SFRSYM    DATA     BYTE      ADC0CF
      000000E8H.7 SFRSYM    DATA     BIT       ADC0CN_ADEN
      000000F9H   SFRSYM    DATA     WORD      PCA0
      000000E6H   SFRSYM    DATA     BYTE      EIE1
      0000008FH   SFRSYM    DATA     BYTE      PSCTL
      000000E4H   SFRSYM    DATA     BYTE      IT01CF
      000000E8H   SFRSYM    DATA     BYTE      ADC0CN
      000000A4H   SFRSYM    DATA     BYTE      P0MDOUT
LX51 LINKER/LOCATER V4.66.97.0                                                        12/02/2020  18:06:15  PAGE 32


      000000D8H.6 SFRSYM    DATA     BIT       PCA0CN_CR
      000000A5H   SFRSYM    DATA     BYTE      P1MDOUT
      000000CBH   SFRSYM    DATA     BYTE      TMR2RLH
      000000A6H   SFRSYM    DATA     BYTE      P2MDOUT
      000000A8H   SFRSYM    DATA     BYTE      IE
      00000093H   SFRSYM    DATA     BYTE      TMR3RLH
      000000A7H   SFRSYM    DATA     BYTE      P3MDOUT
      000000F6H   SFRSYM    DATA     BYTE      EIP1
      000000F8H.0 SFRSYM    DATA     BIT       SPI0CN_SPIEN
      00000098H.2 SFRSYM    DATA     BIT       SCON0_RB8
      000000CAH   SFRSYM    DATA     BYTE      TMR2RLL
      000000FCH   SFRSYM    DATA     BYTE      PCA0CPH0
      000000E8H.6 SFRSYM    DATA     BIT       ADC0CN_ADTM
      00000092H   SFRSYM    DATA     BYTE      TMR3RLL
      000000EAH   SFRSYM    DATA     BYTE      PCA0CPH1
      00000098H.3 SFRSYM    DATA     BIT       SCON0_TB8
      000000F0H.0 SFRSYM    DATA     BIT       B_B0
      00000082H   SFRSYM    DATA     WORD      DP
      000000ECH   SFRSYM    DATA     BYTE      PCA0CPH2
      000000F0H.1 SFRSYM    DATA     BIT       B_B1
      000000C3H   SFRSYM    DATA     WORD      ADC0GT
      000000EEH   SFRSYM    DATA     BYTE      PCA0CPH3
      000000F0H.2 SFRSYM    DATA     BIT       B_B2
      000000FBH   SFRSYM    DATA     BYTE      PCA0CPL0
      000000FEH   SFRSYM    DATA     BYTE      PCA0CPH4
      000000F0H.3 SFRSYM    DATA     BIT       B_B3
      000000D9H   SFRSYM    DATA     BYTE      PCA0MD
      000000DAH   SFRSYM    DATA     BYTE      PCA0CPM0
      000000E9H   SFRSYM    DATA     BYTE      PCA0CPL1
      000000D8H   SFRSYM    DATA     BYTE      PCA0CN
      000000F0H.4 SFRSYM    DATA     BIT       B_B4
      000000DBH   SFRSYM    DATA     BYTE      PCA0CPM1
      000000EBH   SFRSYM    DATA     BYTE      PCA0CPL2
      000000F0H.5 SFRSYM    DATA     BIT       B_B5
      000000DCH   SFRSYM    DATA     BYTE      PCA0CPM2
      000000EDH   SFRSYM    DATA     BYTE      PCA0CPL3
      000000B8H   SFRSYM    DATA     BYTE      IP
      000000F0H.6 SFRSYM    DATA     BIT       B_B6
      000000C5H   SFRSYM    DATA     WORD      ADC0LT
      000000DDH   SFRSYM    DATA     BYTE      PCA0CPM3
      000000FDH   SFRSYM    DATA     BYTE      PCA0CPL4
      00000098H.5 SFRSYM    DATA     BIT       SCON0_MCE
      000000F0H.7 SFRSYM    DATA     BIT       B_B7
      000000DEH   SFRSYM    DATA     BYTE      PCA0CPM4
      000000E1H   SFRSYM    DATA     BYTE      XBR0
      000000C1H   SFRSYM    DATA     BYTE      SMB0CF
      000000E2H   SFRSYM    DATA     BYTE      XBR1
      000000AAH   SFRSYM    DATA     BYTE      EMI0CN
      000000C0H.2 SFRSYM    DATA     BIT       SMB0CN_ARBLOST
      000000E0H.0 SFRSYM    DATA     BIT       ACC_ACC0
      000000D1H   SFRSYM    DATA     BYTE      REF0CN
      000000F8H.1 SFRSYM    DATA     BIT       SPI0CN_TXBMT
      000000E0H.1 SFRSYM    DATA     BIT       ACC_ACC1
      000000C0H.0 SFRSYM    DATA     BIT       SMB0CN_SI
      000000E0H.2 SFRSYM    DATA     BIT       ACC_ACC2
      000000E0H.3 SFRSYM    DATA     BIT       ACC_ACC3
      00000081H   SFRSYM    DATA     BYTE      SP
      000000E0H.4 SFRSYM    DATA     BIT       ACC_ACC4
      000000E0H.5 SFRSYM    DATA     BIT       ACC_ACC5
      000000C0H   SFRSYM    DATA     BYTE      SMB0CN
      000000E0H.6 SFRSYM    DATA     BIT       ACC_ACC6
      000000CCH   SFRSYM    DATA     WORD      TMR2
LX51 LINKER/LOCATER V4.66.97.0                                                        12/02/2020  18:06:15  PAGE 33


      000000E0H.7 SFRSYM    DATA     BIT       ACC_ACC7
      00000094H   SFRSYM    DATA     WORD      TMR3
      000000FFH   SFRSYM    DATA     BYTE      VDM0CN
      000000F1H   SFRSYM    DATA     BYTE      P0MDIN
      0000009DH   SFRSYM    DATA     BYTE      CPT0MD
      0000009BH   SFRSYM    DATA     BYTE      CPT0CN
      00000098H.4 SFRSYM    DATA     BIT       SCON0_REN
      000000F2H   SFRSYM    DATA     BYTE      P1MDIN
      0000009CH   SFRSYM    DATA     BYTE      CPT1MD
      0000009AH   SFRSYM    DATA     BYTE      CPT1CN
      000000F3H   SFRSYM    DATA     BYTE      P2MDIN
      000000F4H   SFRSYM    DATA     BYTE      P3MDIN
      000000C8H.7 SFRSYM    DATA     BIT       TMR2CN_TF2H
      000000C8H.3 SFRSYM    DATA     BIT       TMR2CN_T2SPLIT
      000000F8H   SFRSYM    DATA     BYTE      SPI0CN
      000000D0H.3 SFRSYM    DATA     BIT       PSW_RS0
      00000087H   SFRSYM    DATA     BYTE      PCON
      000000C8H.6 SFRSYM    DATA     BIT       TMR2CN_TF2L
      000000D0H.4 SFRSYM    DATA     BIT       PSW_RS1
      000000E8H.0 SFRSYM    DATA     BIT       ADC0CN_ADCM0
      000000E8H.1 SFRSYM    DATA     BIT       ADC0CN_ADCM1
      000000E8H.2 SFRSYM    DATA     BIT       ADC0CN_ADCM2
      000000E8H.3 SFRSYM    DATA     BIT       ADC0CN_ADWINT
      00000089H   SFRSYM    DATA     BYTE      TMOD
      00000088H   SFRSYM    DATA     BYTE      TCON
      000000E8H.4 SFRSYM    DATA     BIT       ADC0CN_ADBUSY
      000000F8H.5 SFRSYM    DATA     BIT       SPI0CN_MODF
      000000D0H.0 SFRSYM    DATA     BIT       PSW_PARITY
      000000A8H.4 SFRSYM    DATA     BIT       IE_ES0
      000000A8H.1 SFRSYM    DATA     BIT       IE_ET0
      000000C8H   SFRSYM    DATA     BYTE      TMR2CN
      000000A8H.3 SFRSYM    DATA     BIT       IE_ET1
      00000091H   SFRSYM    DATA     BYTE      TMR3CN
      000000D4H   SFRSYM    DATA     BYTE      P0SKIP
      000000A8H.5 SFRSYM    DATA     BIT       IE_ET2
      000000D5H   SFRSYM    DATA     BYTE      P1SKIP
      000000D6H   SFRSYM    DATA     BYTE      P2SKIP
      000000A8H.0 SFRSYM    DATA     BIT       IE_EX0
      000000A8H.2 SFRSYM    DATA     BIT       IE_EX1
      0000009FH   SFRSYM    DATA     BYTE      CPT0MX
      00000098H.7 SFRSYM    DATA     BIT       SCON0_SMODE
      000000B3H   SFRSYM    DATA     BYTE      OSCICL
      0000009EH   SFRSYM    DATA     BYTE      CPT1MX
      000000A9H   SFRSYM    DATA     BYTE      CLKSEL
      000000B2H   SFRSYM    DATA     BYTE      OSCICN
      000000F0H   SFRSYM    DATA     BYTE      B
      000000BEH   SFRSYM    DATA     BYTE      ADC0H
      000000F8H.7 SFRSYM    DATA     BIT       SPI0CN_SPIF
      000000CAH   SFRSYM    DATA     WORD      TMR2RL
      000000BDH   SFRSYM    DATA     BYTE      ADC0L
      000000C8H.5 SFRSYM    DATA     BIT       TMR2CN_TF2LEN
      000000F8H.6 SFRSYM    DATA     BIT       SPI0CN_WCOL
      00000092H   SFRSYM    DATA     WORD      TMR3RL
      000000F8H.2 SFRSYM    DATA     BIT       SPI0CN_NSSMD0
      000000E0H   SFRSYM    DATA     BYTE      ACC
      000000F8H.3 SFRSYM    DATA     BIT       SPI0CN_NSSMD1
      000000FBH   SFRSYM    DATA     WORD      PCA0CP0
      000000E9H   SFRSYM    DATA     WORD      PCA0CP1
      000000EBH   SFRSYM    DATA     WORD      PCA0CP2
      000000EDH   SFRSYM    DATA     WORD      PCA0CP3
      0000008CH   SFRSYM    DATA     BYTE      TH0
      000000B8H.4 SFRSYM    DATA     BIT       IP_PS0
LX51 LINKER/LOCATER V4.66.97.0                                                        12/02/2020  18:06:15  PAGE 34


      000000FDH   SFRSYM    DATA     WORD      PCA0CP4
      0000008DH   SFRSYM    DATA     BYTE      TH1
      000000FAH   SFRSYM    DATA     BYTE      PCA0H
      000000B8H.1 SFRSYM    DATA     BIT       IP_PT0
      000000B8H.3 SFRSYM    DATA     BIT       IP_PT1
      000000B8H.5 SFRSYM    DATA     BIT       IP_PT2
      0000008AH   SFRSYM    DATA     BYTE      TL0
      000000B1H   SFRSYM    DATA     BYTE      OSCXCN
      000000D0H.5 SFRSYM    DATA     BIT       PSW_F0
      000000A8H.6 SFRSYM    DATA     BIT       IE_ESPI0
      0000008BH   SFRSYM    DATA     BYTE      TL1
      000000F9H   SFRSYM    DATA     BYTE      PCA0L
      000000D0H.1 SFRSYM    DATA     BIT       PSW_F1
      00000080H.0 SFRSYM    DATA     BIT       P0_B0
      000000B8H.0 SFRSYM    DATA     BIT       IP_PX0
      000000C8H.0 SFRSYM    DATA     BIT       TMR2CN_T2XCLK
      00000090H.0 SFRSYM    DATA     BIT       P1_B0
      00000080H.1 SFRSYM    DATA     BIT       P0_B1
      000000B8H.2 SFRSYM    DATA     BIT       IP_PX1
      00000088H.1 SFRSYM    DATA     BIT       TCON_IE0
      000000C0H.7 SFRSYM    DATA     BIT       SMB0CN_MASTER
      000000A0H.0 SFRSYM    DATA     BIT       P2_B0
      00000090H.1 SFRSYM    DATA     BIT       P1_B1
      00000080H.2 SFRSYM    DATA     BIT       P0_B2
      00000088H.3 SFRSYM    DATA     BIT       TCON_IE1
      000000C0H.1 SFRSYM    DATA     BIT       SMB0CN_ACK
      000000B0H.0 SFRSYM    DATA     BIT       P3_B0
      000000A0H.1 SFRSYM    DATA     BIT       P2_B1
      00000090H.2 SFRSYM    DATA     BIT       P1_B2
      00000080H.3 SFRSYM    DATA     BIT       P0_B3
      000000B0H.1 SFRSYM    DATA     BIT       P3_B1
      000000A0H.2 SFRSYM    DATA     BIT       P2_B2
      00000090H.3 SFRSYM    DATA     BIT       P1_B3
      00000080H.4 SFRSYM    DATA     BIT       P0_B4
      000000B0H.2 SFRSYM    DATA     BIT       P3_B2
      000000A0H.3 SFRSYM    DATA     BIT       P2_B3
      00000090H.4 SFRSYM    DATA     BIT       P1_B4
      00000080H.5 SFRSYM    DATA     BIT       P0_B5
      000000B0H.3 SFRSYM    DATA     BIT       P3_B3
      000000A0H.4 SFRSYM    DATA     BIT       P2_B4
      00000090H.5 SFRSYM    DATA     BIT       P1_B5
      00000080H.6 SFRSYM    DATA     BIT       P0_B6
      000000C0H.6 SFRSYM    DATA     BIT       SMB0CN_TXMODE
      000000B0H.4 SFRSYM    DATA     BIT       P3_B4
      000000A0H.5 SFRSYM    DATA     BIT       P2_B5
      00000090H.6 SFRSYM    DATA     BIT       P1_B6
      00000080H.7 SFRSYM    DATA     BIT       P0_B7
      000000A0H.6 SFRSYM    DATA     BIT       P2_B6
      00000090H.7 SFRSYM    DATA     BIT       P1_B7
      000000A0H.7 SFRSYM    DATA     BIT       P2_B7
      00000083H   SFRSYM    DATA     BYTE      DPH
      000000E8H.5 SFRSYM    DATA     BIT       ADC0CN_ADINT
      000000C4H   SFRSYM    DATA     BYTE      ADC0GTH
      000000D0H.6 SFRSYM    DATA     BIT       PSW_AC
      00000088H.5 SFRSYM    DATA     BIT       TCON_TF0
      00000098H.0 SFRSYM    DATA     BIT       SCON0_RI
      00000082H   SFRSYM    DATA     BYTE      DPL
      00000088H.7 SFRSYM    DATA     BIT       TCON_TF1
      00000099H   SFRSYM    DATA     BYTE      SBUF0
      000000C3H   SFRSYM    DATA     BYTE      ADC0GTL
      00000098H.1 SFRSYM    DATA     BIT       SCON0_TI
      000000C6H   SFRSYM    DATA     BYTE      ADC0LTH
LX51 LINKER/LOCATER V4.66.97.0                                                        12/02/2020  18:06:15  PAGE 35


      00000088H.0 SFRSYM    DATA     BIT       TCON_IT0
      000000EFH   SFRSYM    DATA     BYTE      RSTSRC
      00000088H.2 SFRSYM    DATA     BIT       TCON_IT1
      00000098H   SFRSYM    DATA     BYTE      SCON0
      000000BAH   SFRSYM    DATA     BYTE      AMX0N
      000000C5H   SFRSYM    DATA     BYTE      ADC0LTL
      000000B8H.6 SFRSYM    DATA     BIT       IP_PSPI0
      000000BBH   SFRSYM    DATA     BYTE      AMX0P
      00000088H.4 SFRSYM    DATA     BIT       TCON_TR0
      00000088H.6 SFRSYM    DATA     BIT       TCON_TR1
      000000C2H   SFRSYM    DATA     BYTE      SMB0DAT
      000000C0H.5 SFRSYM    DATA     BIT       SMB0CN_STA
      000000CDH   SFRSYM    DATA     BYTE      TMR2H
      000000A1H   SFRSYM    DATA     BYTE      SPI0CFG
      00000095H   SFRSYM    DATA     BYTE      TMR3H
      0000008EH   SFRSYM    DATA     BYTE      CKCON
      000000C8H.2 SFRSYM    DATA     BIT       TMR2CN_TR2
      000000CCH   SFRSYM    DATA     BYTE      TMR2L
      00000094H   SFRSYM    DATA     BYTE      TMR3L
      000000D8H.0 SFRSYM    DATA     BIT       PCA0CN_CCF0
      000000A8H.7 SFRSYM    DATA     BIT       IE_EA
      000000D8H.1 SFRSYM    DATA     BIT       PCA0CN_CCF1
      000000B6H   SFRSYM    DATA     BYTE      FLSCL
      000000D8H.2 SFRSYM    DATA     BIT       PCA0CN_CCF2
      000000D0H.7 SFRSYM    DATA     BIT       PSW_CY
      000000D8H.3 SFRSYM    DATA     BIT       PCA0CN_CCF3
      000000A3H   SFRSYM    DATA     BYTE      SPI0DAT
      000000D8H.4 SFRSYM    DATA     BIT       PCA0CN_CCF4
      000000BDH   SFRSYM    DATA     WORD      ADC0
      000000C0H.3 SFRSYM    DATA     BIT       SMB0CN_ACKRQ
      000000D0H   SFRSYM    DATA     BYTE      PSW
      000000C0H.4 SFRSYM    DATA     BIT       SMB0CN_STO
      000000B7H   SFRSYM    DATA     BYTE      FLKEY

      010016D9H   BLOCK     CODE     ---       LVL=0
      010016D9H   BLOCK     CODE     NEAR LAB  LVL=1
      020000ACH   SYMBOL    PDATA    DWORD     count
      ---         BLOCKEND  ---      ---       LVL=1
      010016D9H   LINE      CODE     ---       #17
      010016D9H   LINE      CODE     ---       #18
      010016D9H   LINE      CODE     ---       #20
      010016F8H   LINE      CODE     ---       #21
      01001715H   LINE      CODE     ---       #22
      01001735H   LINE      CODE     ---       #23
      0100173CH   LINE      CODE     ---       #24
      ---         BLOCKEND  ---      ---       LVL=0

      01000026H   BLOCK     CODE     ---       LVL=0
      01000026H   LINE      CODE     ---       #26
      01000026H   LINE      CODE     ---       #27
      01000026H   LINE      CODE     ---       #31
      01000029H   LINE      CODE     ---       #33
      0100002CH   LINE      CODE     ---       #35
      01000031H   LINE      CODE     ---       #36
      ---         BLOCKEND  ---      ---       LVL=0

      010019D9H   BLOCK     CODE     ---       LVL=0
      010019D9H   LINE      CODE     ---       #38
      010019E4H   LINE      CODE     ---       #40
      010019E9H   LINE      CODE     ---       #41
      010019E9H   LINE      CODE     ---       #42
      010019ECH   LINE      CODE     ---       #44
LX51 LINKER/LOCATER V4.66.97.0                                                        12/02/2020  18:06:15  PAGE 36


      010019F4H   LINE      CODE     ---       #45
      010019F4H   LINE      CODE     ---       #46
      010019F9H   LINE      CODE     ---       #48
      010019F9H   LINE      CODE     ---       #50
      01001A00H   LINE      CODE     ---       #51
      01001A05H   LINE      CODE     ---       #52
      01001A05H   LINE      CODE     ---       #54
      01001A08H   LINE      CODE     ---       #55
      ---         BLOCKEND  ---      ---       LVL=0

      01001AF4H   BLOCK     CODE     ---       LVL=0
      01001AF4H   LINE      CODE     ---       #57
      01001AF4H   LINE      CODE     ---       #58
      01001AF4H   LINE      CODE     ---       #59
      01001AF8H   LINE      CODE     ---       #60
      01001AFAH   LINE      CODE     ---       #61
      01001AFDH   LINE      CODE     ---       #69
      ---         BLOCKEND  ---      ---       LVL=0

      ---         MODULE    ---      ---       SYS
      020000EBH   PUBLIC    PDATA    DWORD     Sys_Clk
      01001A98H   PUBLIC    CODE     ---       Init_Device
      01001AFEH   PUBLIC    CODE     ---       Interrupts_Init
      01001B05H   PUBLIC    CODE     ---       Oscillator_Init
      01001AB4H   PUBLIC    CODE     ---       Port_IO_Init
      000000A2H   SFRSYM    DATA     BYTE      SPI0CKR
      00000080H   SFRSYM    DATA     BYTE      P0
      000000D0H.2 SFRSYM    DATA     BIT       PSW_OV
      000000D8H.7 SFRSYM    DATA     BIT       PCA0CN_CF
      00000090H   SFRSYM    DATA     BYTE      P1
      000000F8H.4 SFRSYM    DATA     BIT       SPI0CN_RXOVRN
      000000A0H   SFRSYM    DATA     BYTE      P2
      000000B0H   SFRSYM    DATA     BYTE      P3
      000000BCH   SFRSYM    DATA     BYTE      ADC0CF
      000000E8H.7 SFRSYM    DATA     BIT       ADC0CN_ADEN
      000000F9H   SFRSYM    DATA     WORD      PCA0
      000000E6H   SFRSYM    DATA     BYTE      EIE1
      0000008FH   SFRSYM    DATA     BYTE      PSCTL
      000000E4H   SFRSYM    DATA     BYTE      IT01CF
      000000E8H   SFRSYM    DATA     BYTE      ADC0CN
      000000A4H   SFRSYM    DATA     BYTE      P0MDOUT
      000000D8H.6 SFRSYM    DATA     BIT       PCA0CN_CR
      000000A5H   SFRSYM    DATA     BYTE      P1MDOUT
      000000CBH   SFRSYM    DATA     BYTE      TMR2RLH
      000000A6H   SFRSYM    DATA     BYTE      P2MDOUT
      000000A8H   SFRSYM    DATA     BYTE      IE
      00000093H   SFRSYM    DATA     BYTE      TMR3RLH
      000000A7H   SFRSYM    DATA     BYTE      P3MDOUT
      000000F6H   SFRSYM    DATA     BYTE      EIP1
      000000F8H.0 SFRSYM    DATA     BIT       SPI0CN_SPIEN
      00000098H.2 SFRSYM    DATA     BIT       SCON0_RB8
      000000CAH   SFRSYM    DATA     BYTE      TMR2RLL
      000000FCH   SFRSYM    DATA     BYTE      PCA0CPH0
      000000E8H.6 SFRSYM    DATA     BIT       ADC0CN_ADTM
      00000092H   SFRSYM    DATA     BYTE      TMR3RLL
      000000EAH   SFRSYM    DATA     BYTE      PCA0CPH1
      00000098H.3 SFRSYM    DATA     BIT       SCON0_TB8
      000000F0H.0 SFRSYM    DATA     BIT       B_B0
      00000082H   SFRSYM    DATA     WORD      DP
      000000ECH   SFRSYM    DATA     BYTE      PCA0CPH2
      000000F0H.1 SFRSYM    DATA     BIT       B_B1
      000000C3H   SFRSYM    DATA     WORD      ADC0GT
LX51 LINKER/LOCATER V4.66.97.0                                                        12/02/2020  18:06:15  PAGE 37


      000000EEH   SFRSYM    DATA     BYTE      PCA0CPH3
      000000F0H.2 SFRSYM    DATA     BIT       B_B2
      000000FBH   SFRSYM    DATA     BYTE      PCA0CPL0
      000000FEH   SFRSYM    DATA     BYTE      PCA0CPH4
      000000F0H.3 SFRSYM    DATA     BIT       B_B3
      000000D9H   SFRSYM    DATA     BYTE      PCA0MD
      000000DAH   SFRSYM    DATA     BYTE      PCA0CPM0
      000000E9H   SFRSYM    DATA     BYTE      PCA0CPL1
      000000D8H   SFRSYM    DATA     BYTE      PCA0CN
      000000F0H.4 SFRSYM    DATA     BIT       B_B4
      000000DBH   SFRSYM    DATA     BYTE      PCA0CPM1
      000000EBH   SFRSYM    DATA     BYTE      PCA0CPL2
      000000F0H.5 SFRSYM    DATA     BIT       B_B5
      000000DCH   SFRSYM    DATA     BYTE      PCA0CPM2
      000000EDH   SFRSYM    DATA     BYTE      PCA0CPL3
      000000B8H   SFRSYM    DATA     BYTE      IP
      000000F0H.6 SFRSYM    DATA     BIT       B_B6
      000000C5H   SFRSYM    DATA     WORD      ADC0LT
      000000DDH   SFRSYM    DATA     BYTE      PCA0CPM3
      000000FDH   SFRSYM    DATA     BYTE      PCA0CPL4
      00000098H.5 SFRSYM    DATA     BIT       SCON0_MCE
      000000F0H.7 SFRSYM    DATA     BIT       B_B7
      000000DEH   SFRSYM    DATA     BYTE      PCA0CPM4
      000000E1H   SFRSYM    DATA     BYTE      XBR0
      000000C1H   SFRSYM    DATA     BYTE      SMB0CF
      000000E2H   SFRSYM    DATA     BYTE      XBR1
      000000AAH   SFRSYM    DATA     BYTE      EMI0CN
      000000C0H.2 SFRSYM    DATA     BIT       SMB0CN_ARBLOST
      000000E0H.0 SFRSYM    DATA     BIT       ACC_ACC0
      000000D1H   SFRSYM    DATA     BYTE      REF0CN
      000000F8H.1 SFRSYM    DATA     BIT       SPI0CN_TXBMT
      000000E0H.1 SFRSYM    DATA     BIT       ACC_ACC1
      000000C0H.0 SFRSYM    DATA     BIT       SMB0CN_SI
      000000E0H.2 SFRSYM    DATA     BIT       ACC_ACC2
      000000E0H.3 SFRSYM    DATA     BIT       ACC_ACC3
      00000081H   SFRSYM    DATA     BYTE      SP
      000000E0H.4 SFRSYM    DATA     BIT       ACC_ACC4
      000000E0H.5 SFRSYM    DATA     BIT       ACC_ACC5
      000000C0H   SFRSYM    DATA     BYTE      SMB0CN
      000000E0H.6 SFRSYM    DATA     BIT       ACC_ACC6
      000000CCH   SFRSYM    DATA     WORD      TMR2
      000000E0H.7 SFRSYM    DATA     BIT       ACC_ACC7
      00000094H   SFRSYM    DATA     WORD      TMR3
      000000FFH   SFRSYM    DATA     BYTE      VDM0CN
      000000F1H   SFRSYM    DATA     BYTE      P0MDIN
      0000009DH   SFRSYM    DATA     BYTE      CPT0MD
      0000009BH   SFRSYM    DATA     BYTE      CPT0CN
      00000098H.4 SFRSYM    DATA     BIT       SCON0_REN
      000000F2H   SFRSYM    DATA     BYTE      P1MDIN
      0000009CH   SFRSYM    DATA     BYTE      CPT1MD
      0000009AH   SFRSYM    DATA     BYTE      CPT1CN
      000000F3H   SFRSYM    DATA     BYTE      P2MDIN
      000000F4H   SFRSYM    DATA     BYTE      P3MDIN
      000000C8H.7 SFRSYM    DATA     BIT       TMR2CN_TF2H
      000000C8H.3 SFRSYM    DATA     BIT       TMR2CN_T2SPLIT
      000000F8H   SFRSYM    DATA     BYTE      SPI0CN
      000000D0H.3 SFRSYM    DATA     BIT       PSW_RS0
      00000087H   SFRSYM    DATA     BYTE      PCON
      000000C8H.6 SFRSYM    DATA     BIT       TMR2CN_TF2L
      000000D0H.4 SFRSYM    DATA     BIT       PSW_RS1
      000000E8H.0 SFRSYM    DATA     BIT       ADC0CN_ADCM0
      000000E8H.1 SFRSYM    DATA     BIT       ADC0CN_ADCM1
LX51 LINKER/LOCATER V4.66.97.0                                                        12/02/2020  18:06:15  PAGE 38


      000000E8H.2 SFRSYM    DATA     BIT       ADC0CN_ADCM2
      000000E8H.3 SFRSYM    DATA     BIT       ADC0CN_ADWINT
      00000089H   SFRSYM    DATA     BYTE      TMOD
      00000088H   SFRSYM    DATA     BYTE      TCON
      000000E8H.4 SFRSYM    DATA     BIT       ADC0CN_ADBUSY
      000000F8H.5 SFRSYM    DATA     BIT       SPI0CN_MODF
      000000D0H.0 SFRSYM    DATA     BIT       PSW_PARITY
      000000A8H.4 SFRSYM    DATA     BIT       IE_ES0
      000000A8H.1 SFRSYM    DATA     BIT       IE_ET0
      000000C8H   SFRSYM    DATA     BYTE      TMR2CN
      000000A8H.3 SFRSYM    DATA     BIT       IE_ET1
      00000091H   SFRSYM    DATA     BYTE      TMR3CN
      000000D4H   SFRSYM    DATA     BYTE      P0SKIP
      000000A8H.5 SFRSYM    DATA     BIT       IE_ET2
      000000D5H   SFRSYM    DATA     BYTE      P1SKIP
      000000D6H   SFRSYM    DATA     BYTE      P2SKIP
      000000A8H.0 SFRSYM    DATA     BIT       IE_EX0
      000000A8H.2 SFRSYM    DATA     BIT       IE_EX1
      0000009FH   SFRSYM    DATA     BYTE      CPT0MX
      00000098H.7 SFRSYM    DATA     BIT       SCON0_SMODE
      000000B3H   SFRSYM    DATA     BYTE      OSCICL
      0000009EH   SFRSYM    DATA     BYTE      CPT1MX
      000000A9H   SFRSYM    DATA     BYTE      CLKSEL
      000000B2H   SFRSYM    DATA     BYTE      OSCICN
      000000F0H   SFRSYM    DATA     BYTE      B
      000000BEH   SFRSYM    DATA     BYTE      ADC0H
      000000F8H.7 SFRSYM    DATA     BIT       SPI0CN_SPIF
      000000CAH   SFRSYM    DATA     WORD      TMR2RL
      000000BDH   SFRSYM    DATA     BYTE      ADC0L
      000000C8H.5 SFRSYM    DATA     BIT       TMR2CN_TF2LEN
      000000F8H.6 SFRSYM    DATA     BIT       SPI0CN_WCOL
      00000092H   SFRSYM    DATA     WORD      TMR3RL
      000000F8H.2 SFRSYM    DATA     BIT       SPI0CN_NSSMD0
      000000E0H   SFRSYM    DATA     BYTE      ACC
      000000F8H.3 SFRSYM    DATA     BIT       SPI0CN_NSSMD1
      000000FBH   SFRSYM    DATA     WORD      PCA0CP0
      000000E9H   SFRSYM    DATA     WORD      PCA0CP1
      000000EBH   SFRSYM    DATA     WORD      PCA0CP2
      000000EDH   SFRSYM    DATA     WORD      PCA0CP3
      0000008CH   SFRSYM    DATA     BYTE      TH0
      000000B8H.4 SFRSYM    DATA     BIT       IP_PS0
      000000FDH   SFRSYM    DATA     WORD      PCA0CP4
      0000008DH   SFRSYM    DATA     BYTE      TH1
      000000FAH   SFRSYM    DATA     BYTE      PCA0H
      000000B8H.1 SFRSYM    DATA     BIT       IP_PT0
      000000B8H.3 SFRSYM    DATA     BIT       IP_PT1
      000000B8H.5 SFRSYM    DATA     BIT       IP_PT2
      0000008AH   SFRSYM    DATA     BYTE      TL0
      000000B1H   SFRSYM    DATA     BYTE      OSCXCN
      000000D0H.5 SFRSYM    DATA     BIT       PSW_F0
      000000A8H.6 SFRSYM    DATA     BIT       IE_ESPI0
      0000008BH   SFRSYM    DATA     BYTE      TL1
      000000F9H   SFRSYM    DATA     BYTE      PCA0L
      000000D0H.1 SFRSYM    DATA     BIT       PSW_F1
      00000080H.0 SFRSYM    DATA     BIT       P0_B0
      000000B8H.0 SFRSYM    DATA     BIT       IP_PX0
      000000C8H.0 SFRSYM    DATA     BIT       TMR2CN_T2XCLK
      00000090H.0 SFRSYM    DATA     BIT       P1_B0
      00000080H.1 SFRSYM    DATA     BIT       P0_B1
      000000B8H.2 SFRSYM    DATA     BIT       IP_PX1
      00000088H.1 SFRSYM    DATA     BIT       TCON_IE0
      000000C0H.7 SFRSYM    DATA     BIT       SMB0CN_MASTER
LX51 LINKER/LOCATER V4.66.97.0                                                        12/02/2020  18:06:15  PAGE 39


      000000A0H.0 SFRSYM    DATA     BIT       P2_B0
      00000090H.1 SFRSYM    DATA     BIT       P1_B1
      00000080H.2 SFRSYM    DATA     BIT       P0_B2
      00000088H.3 SFRSYM    DATA     BIT       TCON_IE1
      000000C0H.1 SFRSYM    DATA     BIT       SMB0CN_ACK
      000000B0H.0 SFRSYM    DATA     BIT       P3_B0
      000000A0H.1 SFRSYM    DATA     BIT       P2_B1
      00000090H.2 SFRSYM    DATA     BIT       P1_B2
      00000080H.3 SFRSYM    DATA     BIT       P0_B3
      000000B0H.1 SFRSYM    DATA     BIT       P3_B1
      000000A0H.2 SFRSYM    DATA     BIT       P2_B2
      00000090H.3 SFRSYM    DATA     BIT       P1_B3
      00000080H.4 SFRSYM    DATA     BIT       P0_B4
      000000B0H.2 SFRSYM    DATA     BIT       P3_B2
      000000A0H.3 SFRSYM    DATA     BIT       P2_B3
      00000090H.4 SFRSYM    DATA     BIT       P1_B4
      00000080H.5 SFRSYM    DATA     BIT       P0_B5
      000000B0H.3 SFRSYM    DATA     BIT       P3_B3
      000000A0H.4 SFRSYM    DATA     BIT       P2_B4
      00000090H.5 SFRSYM    DATA     BIT       P1_B5
      00000080H.6 SFRSYM    DATA     BIT       P0_B6
      000000C0H.6 SFRSYM    DATA     BIT       SMB0CN_TXMODE
      000000B0H.4 SFRSYM    DATA     BIT       P3_B4
      000000A0H.5 SFRSYM    DATA     BIT       P2_B5
      00000090H.6 SFRSYM    DATA     BIT       P1_B6
      00000080H.7 SFRSYM    DATA     BIT       P0_B7
      000000A0H.6 SFRSYM    DATA     BIT       P2_B6
      00000090H.7 SFRSYM    DATA     BIT       P1_B7
      000000A0H.7 SFRSYM    DATA     BIT       P2_B7
      00000083H   SFRSYM    DATA     BYTE      DPH
      000000E8H.5 SFRSYM    DATA     BIT       ADC0CN_ADINT
      000000C4H   SFRSYM    DATA     BYTE      ADC0GTH
      000000D0H.6 SFRSYM    DATA     BIT       PSW_AC
      00000088H.5 SFRSYM    DATA     BIT       TCON_TF0
      00000098H.0 SFRSYM    DATA     BIT       SCON0_RI
      00000082H   SFRSYM    DATA     BYTE      DPL
      00000088H.7 SFRSYM    DATA     BIT       TCON_TF1
      00000099H   SFRSYM    DATA     BYTE      SBUF0
      000000C3H   SFRSYM    DATA     BYTE      ADC0GTL
      00000098H.1 SFRSYM    DATA     BIT       SCON0_TI
      000000C6H   SFRSYM    DATA     BYTE      ADC0LTH
      00000088H.0 SFRSYM    DATA     BIT       TCON_IT0
      000000EFH   SFRSYM    DATA     BYTE      RSTSRC
      00000088H.2 SFRSYM    DATA     BIT       TCON_IT1
      00000098H   SFRSYM    DATA     BYTE      SCON0
      000000BAH   SFRSYM    DATA     BYTE      AMX0N
      000000C5H   SFRSYM    DATA     BYTE      ADC0LTL
      000000B8H.6 SFRSYM    DATA     BIT       IP_PSPI0
      000000BBH   SFRSYM    DATA     BYTE      AMX0P
      00000088H.4 SFRSYM    DATA     BIT       TCON_TR0
      00000088H.6 SFRSYM    DATA     BIT       TCON_TR1
      000000C2H   SFRSYM    DATA     BYTE      SMB0DAT
      000000C0H.5 SFRSYM    DATA     BIT       SMB0CN_STA
      000000CDH   SFRSYM    DATA     BYTE      TMR2H
      000000A1H   SFRSYM    DATA     BYTE      SPI0CFG
      00000095H   SFRSYM    DATA     BYTE      TMR3H
      0000008EH   SFRSYM    DATA     BYTE      CKCON
      000000C8H.2 SFRSYM    DATA     BIT       TMR2CN_TR2
      000000CCH   SFRSYM    DATA     BYTE      TMR2L
      00000094H   SFRSYM    DATA     BYTE      TMR3L
      000000D8H.0 SFRSYM    DATA     BIT       PCA0CN_CCF0
      000000A8H.7 SFRSYM    DATA     BIT       IE_EA
LX51 LINKER/LOCATER V4.66.97.0                                                        12/02/2020  18:06:15  PAGE 40


      000000D8H.1 SFRSYM    DATA     BIT       PCA0CN_CCF1
      000000B6H   SFRSYM    DATA     BYTE      FLSCL
      000000D8H.2 SFRSYM    DATA     BIT       PCA0CN_CCF2
      000000D0H.7 SFRSYM    DATA     BIT       PSW_CY
      000000D8H.3 SFRSYM    DATA     BIT       PCA0CN_CCF3
      000000A3H   SFRSYM    DATA     BYTE      SPI0DAT
      000000D8H.4 SFRSYM    DATA     BIT       PCA0CN_CCF4
      000000BDH   SFRSYM    DATA     WORD      ADC0
      000000C0H.3 SFRSYM    DATA     BIT       SMB0CN_ACKRQ
      000000D0H   SFRSYM    DATA     BYTE      PSW
      000000C0H.4 SFRSYM    DATA     BIT       SMB0CN_STO
      000000B7H   SFRSYM    DATA     BYTE      FLKEY

      01001AB4H   BLOCK     CODE     ---       LVL=0
      01001AB4H   LINE      CODE     ---       #16
      01001AB4H   LINE      CODE     ---       #17
      01001AB4H   LINE      CODE     ---       #40
      01001AB7H   LINE      CODE     ---       #41
      01001ABAH   LINE      CODE     ---       #42
      01001ABDH   LINE      CODE     ---       #43
      01001AC0H   LINE      CODE     ---       #44
      01001AC3H   LINE      CODE     ---       #45
      01001AC6H   LINE      CODE     ---       #46
      01001AC9H   LINE      CODE     ---       #47
      ---         BLOCKEND  ---      ---       LVL=0

      01001B05H   BLOCK     CODE     ---       LVL=0
      01001B05H   LINE      CODE     ---       #49
      01001B05H   LINE      CODE     ---       #50
      01001B05H   LINE      CODE     ---       #52
      01001B08H   LINE      CODE     ---       #53
      ---         BLOCKEND  ---      ---       LVL=0

      01001AFEH   BLOCK     CODE     ---       LVL=0
      01001AFEH   LINE      CODE     ---       #55
      01001AFEH   LINE      CODE     ---       #56
      01001AFEH   LINE      CODE     ---       #57
      01001B01H   LINE      CODE     ---       #58
      01001B04H   LINE      CODE     ---       #59
      ---         BLOCKEND  ---      ---       LVL=0

      01001A98H   BLOCK     CODE     ---       LVL=0
      01001A98H   LINE      CODE     ---       #61
      01001A98H   LINE      CODE     ---       #62
      01001A98H   LINE      CODE     ---       #63
      01001A9BH   LINE      CODE     ---       #65
      01001A9EH   LINE      CODE     ---       #66
      01001AA1H   LINE      CODE     ---       #67
      01001AA4H   LINE      CODE     ---       #68
      01001AA7H   LINE      CODE     ---       #69
      01001AAAH   LINE      CODE     ---       #70
      01001AADH   LINE      CODE     ---       #72
      01001AB0H   LINE      CODE     ---       #74
      01001AB3H   LINE      CODE     ---       #75
      ---         BLOCKEND  ---      ---       LVL=0

      ---         MODULE    ---      ---       TIMER
      01001ADAH   PUBLIC    CODE     ---       Timer_Init
      01001385H   PUBLIC    CODE     ---       Timer_GetUartCounter
      000000A2H   SFRSYM    DATA     BYTE      SPI0CKR
      00000080H   SFRSYM    DATA     BYTE      P0
      000000D0H.2 SFRSYM    DATA     BIT       PSW_OV
LX51 LINKER/LOCATER V4.66.97.0                                                        12/02/2020  18:06:15  PAGE 41


      000000D8H.7 SFRSYM    DATA     BIT       PCA0CN_CF
      00000090H   SFRSYM    DATA     BYTE      P1
      000000F8H.4 SFRSYM    DATA     BIT       SPI0CN_RXOVRN
      000000A0H   SFRSYM    DATA     BYTE      P2
      000000B0H   SFRSYM    DATA     BYTE      P3
      000000BCH   SFRSYM    DATA     BYTE      ADC0CF
      000000E8H.7 SFRSYM    DATA     BIT       ADC0CN_ADEN
      000000F9H   SFRSYM    DATA     WORD      PCA0
      000000E6H   SFRSYM    DATA     BYTE      EIE1
      0000008FH   SFRSYM    DATA     BYTE      PSCTL
      000000E4H   SFRSYM    DATA     BYTE      IT01CF
      000000E8H   SFRSYM    DATA     BYTE      ADC0CN
      000000A4H   SFRSYM    DATA     BYTE      P0MDOUT
      000000D8H.6 SFRSYM    DATA     BIT       PCA0CN_CR
      000000A5H   SFRSYM    DATA     BYTE      P1MDOUT
      000000CBH   SFRSYM    DATA     BYTE      TMR2RLH
      000000A6H   SFRSYM    DATA     BYTE      P2MDOUT
      000000A8H   SFRSYM    DATA     BYTE      IE
      00000093H   SFRSYM    DATA     BYTE      TMR3RLH
      000000A7H   SFRSYM    DATA     BYTE      P3MDOUT
      000000F6H   SFRSYM    DATA     BYTE      EIP1
      000000F8H.0 SFRSYM    DATA     BIT       SPI0CN_SPIEN
      00000098H.2 SFRSYM    DATA     BIT       SCON0_RB8
      000000CAH   SFRSYM    DATA     BYTE      TMR2RLL
      000000FCH   SFRSYM    DATA     BYTE      PCA0CPH0
      000000E8H.6 SFRSYM    DATA     BIT       ADC0CN_ADTM
      00000092H   SFRSYM    DATA     BYTE      TMR3RLL
      000000EAH   SFRSYM    DATA     BYTE      PCA0CPH1
      00000098H.3 SFRSYM    DATA     BIT       SCON0_TB8
      000000F0H.0 SFRSYM    DATA     BIT       B_B0
      00000082H   SFRSYM    DATA     WORD      DP
      000000ECH   SFRSYM    DATA     BYTE      PCA0CPH2
      000000F0H.1 SFRSYM    DATA     BIT       B_B1
      000000C3H   SFRSYM    DATA     WORD      ADC0GT
      000000EEH   SFRSYM    DATA     BYTE      PCA0CPH3
      000000F0H.2 SFRSYM    DATA     BIT       B_B2
      000000FBH   SFRSYM    DATA     BYTE      PCA0CPL0
      000000FEH   SFRSYM    DATA     BYTE      PCA0CPH4
      000000F0H.3 SFRSYM    DATA     BIT       B_B3
      000000D9H   SFRSYM    DATA     BYTE      PCA0MD
      000000DAH   SFRSYM    DATA     BYTE      PCA0CPM0
      000000E9H   SFRSYM    DATA     BYTE      PCA0CPL1
      000000D8H   SFRSYM    DATA     BYTE      PCA0CN
      000000F0H.4 SFRSYM    DATA     BIT       B_B4
      000000DBH   SFRSYM    DATA     BYTE      PCA0CPM1
      000000EBH   SFRSYM    DATA     BYTE      PCA0CPL2
      000000F0H.5 SFRSYM    DATA     BIT       B_B5
      000000DCH   SFRSYM    DATA     BYTE      PCA0CPM2
      000000EDH   SFRSYM    DATA     BYTE      PCA0CPL3
      000000B8H   SFRSYM    DATA     BYTE      IP
      000000F0H.6 SFRSYM    DATA     BIT       B_B6
      000000C5H   SFRSYM    DATA     WORD      ADC0LT
      000000DDH   SFRSYM    DATA     BYTE      PCA0CPM3
      000000FDH   SFRSYM    DATA     BYTE      PCA0CPL4
      00000098H.5 SFRSYM    DATA     BIT       SCON0_MCE
      000000F0H.7 SFRSYM    DATA     BIT       B_B7
      000000DEH   SFRSYM    DATA     BYTE      PCA0CPM4
      000000E1H   SFRSYM    DATA     BYTE      XBR0
      000000C1H   SFRSYM    DATA     BYTE      SMB0CF
      000000E2H   SFRSYM    DATA     BYTE      XBR1
      000000AAH   SFRSYM    DATA     BYTE      EMI0CN
      000000C0H.2 SFRSYM    DATA     BIT       SMB0CN_ARBLOST
LX51 LINKER/LOCATER V4.66.97.0                                                        12/02/2020  18:06:15  PAGE 42


      000000E0H.0 SFRSYM    DATA     BIT       ACC_ACC0
      000000D1H   SFRSYM    DATA     BYTE      REF0CN
      000000F8H.1 SFRSYM    DATA     BIT       SPI0CN_TXBMT
      000000E0H.1 SFRSYM    DATA     BIT       ACC_ACC1
      000000C0H.0 SFRSYM    DATA     BIT       SMB0CN_SI
      000000E0H.2 SFRSYM    DATA     BIT       ACC_ACC2
      000000E0H.3 SFRSYM    DATA     BIT       ACC_ACC3
      00000081H   SFRSYM    DATA     BYTE      SP
      000000E0H.4 SFRSYM    DATA     BIT       ACC_ACC4
      000000E0H.5 SFRSYM    DATA     BIT       ACC_ACC5
      000000C0H   SFRSYM    DATA     BYTE      SMB0CN
      000000E0H.6 SFRSYM    DATA     BIT       ACC_ACC6
      000000CCH   SFRSYM    DATA     WORD      TMR2
      000000E0H.7 SFRSYM    DATA     BIT       ACC_ACC7
      00000094H   SFRSYM    DATA     WORD      TMR3
      000000FFH   SFRSYM    DATA     BYTE      VDM0CN
      000000F1H   SFRSYM    DATA     BYTE      P0MDIN
      0000009DH   SFRSYM    DATA     BYTE      CPT0MD
      0000009BH   SFRSYM    DATA     BYTE      CPT0CN
      00000098H.4 SFRSYM    DATA     BIT       SCON0_REN
      000000F2H   SFRSYM    DATA     BYTE      P1MDIN
      0000009CH   SFRSYM    DATA     BYTE      CPT1MD
      0000009AH   SFRSYM    DATA     BYTE      CPT1CN
      000000F3H   SFRSYM    DATA     BYTE      P2MDIN
      000000F4H   SFRSYM    DATA     BYTE      P3MDIN
      000000C8H.7 SFRSYM    DATA     BIT       TMR2CN_TF2H
      000000C8H.3 SFRSYM    DATA     BIT       TMR2CN_T2SPLIT
      000000F8H   SFRSYM    DATA     BYTE      SPI0CN
      000000D0H.3 SFRSYM    DATA     BIT       PSW_RS0
      00000087H   SFRSYM    DATA     BYTE      PCON
      000000C8H.6 SFRSYM    DATA     BIT       TMR2CN_TF2L
      000000D0H.4 SFRSYM    DATA     BIT       PSW_RS1
      000000E8H.0 SFRSYM    DATA     BIT       ADC0CN_ADCM0
      000000E8H.1 SFRSYM    DATA     BIT       ADC0CN_ADCM1
      000000E8H.2 SFRSYM    DATA     BIT       ADC0CN_ADCM2
      000000E8H.3 SFRSYM    DATA     BIT       ADC0CN_ADWINT
      00000089H   SFRSYM    DATA     BYTE      TMOD
      00000088H   SFRSYM    DATA     BYTE      TCON
      000000E8H.4 SFRSYM    DATA     BIT       ADC0CN_ADBUSY
      000000F8H.5 SFRSYM    DATA     BIT       SPI0CN_MODF
      000000D0H.0 SFRSYM    DATA     BIT       PSW_PARITY
      000000A8H.4 SFRSYM    DATA     BIT       IE_ES0
      000000A8H.1 SFRSYM    DATA     BIT       IE_ET0
      000000C8H   SFRSYM    DATA     BYTE      TMR2CN
      000000A8H.3 SFRSYM    DATA     BIT       IE_ET1
      00000091H   SFRSYM    DATA     BYTE      TMR3CN
      000000D4H   SFRSYM    DATA     BYTE      P0SKIP
      000000A8H.5 SFRSYM    DATA     BIT       IE_ET2
      000000D5H   SFRSYM    DATA     BYTE      P1SKIP
      000000D6H   SFRSYM    DATA     BYTE      P2SKIP
      000000A8H.0 SFRSYM    DATA     BIT       IE_EX0
      000000A8H.2 SFRSYM    DATA     BIT       IE_EX1
      0000009FH   SFRSYM    DATA     BYTE      CPT0MX
      00000098H.7 SFRSYM    DATA     BIT       SCON0_SMODE
      000000B3H   SFRSYM    DATA     BYTE      OSCICL
      0000009EH   SFRSYM    DATA     BYTE      CPT1MX
      000000A9H   SFRSYM    DATA     BYTE      CLKSEL
      000000B2H   SFRSYM    DATA     BYTE      OSCICN
      000000F0H   SFRSYM    DATA     BYTE      B
      000000BEH   SFRSYM    DATA     BYTE      ADC0H
      000000F8H.7 SFRSYM    DATA     BIT       SPI0CN_SPIF
      000000CAH   SFRSYM    DATA     WORD      TMR2RL
LX51 LINKER/LOCATER V4.66.97.0                                                        12/02/2020  18:06:15  PAGE 43


      000000BDH   SFRSYM    DATA     BYTE      ADC0L
      000000C8H.5 SFRSYM    DATA     BIT       TMR2CN_TF2LEN
      000000F8H.6 SFRSYM    DATA     BIT       SPI0CN_WCOL
      00000092H   SFRSYM    DATA     WORD      TMR3RL
      000000F8H.2 SFRSYM    DATA     BIT       SPI0CN_NSSMD0
      000000E0H   SFRSYM    DATA     BYTE      ACC
      000000F8H.3 SFRSYM    DATA     BIT       SPI0CN_NSSMD1
      000000FBH   SFRSYM    DATA     WORD      PCA0CP0
      000000E9H   SFRSYM    DATA     WORD      PCA0CP1
      000000EBH   SFRSYM    DATA     WORD      PCA0CP2
      000000EDH   SFRSYM    DATA     WORD      PCA0CP3
      0000008CH   SFRSYM    DATA     BYTE      TH0
      000000B8H.4 SFRSYM    DATA     BIT       IP_PS0
      000000FDH   SFRSYM    DATA     WORD      PCA0CP4
      0000008DH   SFRSYM    DATA     BYTE      TH1
      000000FAH   SFRSYM    DATA     BYTE      PCA0H
      000000B8H.1 SFRSYM    DATA     BIT       IP_PT0
      000000B8H.3 SFRSYM    DATA     BIT       IP_PT1
      000000B8H.5 SFRSYM    DATA     BIT       IP_PT2
      0000008AH   SFRSYM    DATA     BYTE      TL0
      000000B1H   SFRSYM    DATA     BYTE      OSCXCN
      000000D0H.5 SFRSYM    DATA     BIT       PSW_F0
      000000A8H.6 SFRSYM    DATA     BIT       IE_ESPI0
      0000008BH   SFRSYM    DATA     BYTE      TL1
      000000F9H   SFRSYM    DATA     BYTE      PCA0L
      000000D0H.1 SFRSYM    DATA     BIT       PSW_F1
      00000080H.0 SFRSYM    DATA     BIT       P0_B0
      000000B8H.0 SFRSYM    DATA     BIT       IP_PX0
      000000C8H.0 SFRSYM    DATA     BIT       TMR2CN_T2XCLK
      00000090H.0 SFRSYM    DATA     BIT       P1_B0
      00000080H.1 SFRSYM    DATA     BIT       P0_B1
      000000B8H.2 SFRSYM    DATA     BIT       IP_PX1
      00000088H.1 SFRSYM    DATA     BIT       TCON_IE0
      000000C0H.7 SFRSYM    DATA     BIT       SMB0CN_MASTER
      000000A0H.0 SFRSYM    DATA     BIT       P2_B0
      00000090H.1 SFRSYM    DATA     BIT       P1_B1
      00000080H.2 SFRSYM    DATA     BIT       P0_B2
      00000088H.3 SFRSYM    DATA     BIT       TCON_IE1
      000000C0H.1 SFRSYM    DATA     BIT       SMB0CN_ACK
      000000B0H.0 SFRSYM    DATA     BIT       P3_B0
      000000A0H.1 SFRSYM    DATA     BIT       P2_B1
      00000090H.2 SFRSYM    DATA     BIT       P1_B2
      00000080H.3 SFRSYM    DATA     BIT       P0_B3
      000000B0H.1 SFRSYM    DATA     BIT       P3_B1
      000000A0H.2 SFRSYM    DATA     BIT       P2_B2
      00000090H.3 SFRSYM    DATA     BIT       P1_B3
      00000080H.4 SFRSYM    DATA     BIT       P0_B4
      000000B0H.2 SFRSYM    DATA     BIT       P3_B2
      000000A0H.3 SFRSYM    DATA     BIT       P2_B3
      00000090H.4 SFRSYM    DATA     BIT       P1_B4
      00000080H.5 SFRSYM    DATA     BIT       P0_B5
      000000B0H.3 SFRSYM    DATA     BIT       P3_B3
      000000A0H.4 SFRSYM    DATA     BIT       P2_B4
      00000090H.5 SFRSYM    DATA     BIT       P1_B5
      00000080H.6 SFRSYM    DATA     BIT       P0_B6
      000000C0H.6 SFRSYM    DATA     BIT       SMB0CN_TXMODE
      000000B0H.4 SFRSYM    DATA     BIT       P3_B4
      000000A0H.5 SFRSYM    DATA     BIT       P2_B5
      00000090H.6 SFRSYM    DATA     BIT       P1_B6
      00000080H.7 SFRSYM    DATA     BIT       P0_B7
      000000A0H.6 SFRSYM    DATA     BIT       P2_B6
      00000090H.7 SFRSYM    DATA     BIT       P1_B7
LX51 LINKER/LOCATER V4.66.97.0                                                        12/02/2020  18:06:15  PAGE 44


      000000A0H.7 SFRSYM    DATA     BIT       P2_B7
      00000083H   SFRSYM    DATA     BYTE      DPH
      000000E8H.5 SFRSYM    DATA     BIT       ADC0CN_ADINT
      000000C4H   SFRSYM    DATA     BYTE      ADC0GTH
      000000D0H.6 SFRSYM    DATA     BIT       PSW_AC
      00000088H.5 SFRSYM    DATA     BIT       TCON_TF0
      00000098H.0 SFRSYM    DATA     BIT       SCON0_RI
      00000082H   SFRSYM    DATA     BYTE      DPL
      00000088H.7 SFRSYM    DATA     BIT       TCON_TF1
      00000099H   SFRSYM    DATA     BYTE      SBUF0
      000000C3H   SFRSYM    DATA     BYTE      ADC0GTL
      00000098H.1 SFRSYM    DATA     BIT       SCON0_TI
      000000C6H   SFRSYM    DATA     BYTE      ADC0LTH
      00000088H.0 SFRSYM    DATA     BIT       TCON_IT0
      000000EFH   SFRSYM    DATA     BYTE      RSTSRC
      00000088H.2 SFRSYM    DATA     BIT       TCON_IT1
      00000098H   SFRSYM    DATA     BYTE      SCON0
      000000BAH   SFRSYM    DATA     BYTE      AMX0N
      000000C5H   SFRSYM    DATA     BYTE      ADC0LTL
      000000B8H.6 SFRSYM    DATA     BIT       IP_PSPI0
      000000BBH   SFRSYM    DATA     BYTE      AMX0P
      00000088H.4 SFRSYM    DATA     BIT       TCON_TR0
      00000088H.6 SFRSYM    DATA     BIT       TCON_TR1
      000000C2H   SFRSYM    DATA     BYTE      SMB0DAT
      000000C0H.5 SFRSYM    DATA     BIT       SMB0CN_STA
      000000CDH   SFRSYM    DATA     BYTE      TMR2H
      000000A1H   SFRSYM    DATA     BYTE      SPI0CFG
      00000095H   SFRSYM    DATA     BYTE      TMR3H
      0000008EH   SFRSYM    DATA     BYTE      CKCON
      000000C8H.2 SFRSYM    DATA     BIT       TMR2CN_TR2
      000000CCH   SFRSYM    DATA     BYTE      TMR2L
      00000094H   SFRSYM    DATA     BYTE      TMR3L
      000000D8H.0 SFRSYM    DATA     BIT       PCA0CN_CCF0
      000000A8H.7 SFRSYM    DATA     BIT       IE_EA
      000000D8H.1 SFRSYM    DATA     BIT       PCA0CN_CCF1
      000000B6H   SFRSYM    DATA     BYTE      FLSCL
      000000D8H.2 SFRSYM    DATA     BIT       PCA0CN_CCF2
      000000D0H.7 SFRSYM    DATA     BIT       PSW_CY
      000000D8H.3 SFRSYM    DATA     BIT       PCA0CN_CCF3
      000000A3H   SFRSYM    DATA     BYTE      SPI0DAT
      000000D8H.4 SFRSYM    DATA     BIT       PCA0CN_CCF4
      000000BDH   SFRSYM    DATA     WORD      ADC0
      000000C0H.3 SFRSYM    DATA     BIT       SMB0CN_ACKRQ
      000000D0H   SFRSYM    DATA     BYTE      PSW
      000000C0H.4 SFRSYM    DATA     BIT       SMB0CN_STO
      000000B7H   SFRSYM    DATA     BYTE      FLKEY

      01001385H   BLOCK     CODE     ---       LVL=0
      01001385H   BLOCK     CODE     NEAR LAB  LVL=1
      020000ACH   SYMBOL    PDATA    DWORD     count
      ---         BLOCKEND  ---      ---       LVL=1
      01001385H   LINE      CODE     ---       #13
      01001385H   LINE      CODE     ---       #14
      01001385H   LINE      CODE     ---       #17
      010013A4H   LINE      CODE     ---       #18
      010013BFH   LINE      CODE     ---       #19
      010013E8H   LINE      CODE     ---       #20
      01001409H   LINE      CODE     ---       #21
      01001410H   LINE      CODE     ---       #22
      ---         BLOCKEND  ---      ---       LVL=0

      01001ADAH   BLOCK     CODE     ---       LVL=0
LX51 LINKER/LOCATER V4.66.97.0                                                        12/02/2020  18:06:15  PAGE 45


      01001ADAH   LINE      CODE     ---       #24
      01001ADAH   LINE      CODE     ---       #25
      01001ADAH   LINE      CODE     ---       #27
      01001ADDH   LINE      CODE     ---       #29
      01001AE0H   LINE      CODE     ---       #30
      01001AE5H   LINE      CODE     ---       #32
      01001AE8H   LINE      CODE     ---       #33
      ---         BLOCKEND  ---      ---       LVL=0

      ---         MODULE    ---      ---       UART
      020000E0H   PUBLIC    PDATA    WORD      Uart_Baud
      020000DFH   PUBLIC    PDATA    BYTE      sta_msg_send_complete
      020000DEH   PUBLIC    PDATA    BYTE      Uart_Recv_buff_size
      020000D4H   PUBLIC    PDATA    ---       Uart_Recv_buff
      020000D3H   PUBLIC    PDATA    BYTE      sta_msg_send_count
      010017F6H   PUBLIC    CODE     ---       UART_GetBuff
      01001AE9H   PUBLIC    CODE     ---       UART_Send
      0100173DH   PUBLIC    CODE     ---       UART0_Interrupt
      01001B09H   PUBLIC    CODE     ---       UART_Init
      000000A2H   SFRSYM    DATA     BYTE      SPI0CKR
      00000080H   SFRSYM    DATA     BYTE      P0
      000000D0H.2 SFRSYM    DATA     BIT       PSW_OV
      000000D8H.7 SFRSYM    DATA     BIT       PCA0CN_CF
      00000090H   SFRSYM    DATA     BYTE      P1
      000000F8H.4 SFRSYM    DATA     BIT       SPI0CN_RXOVRN
      000000A0H   SFRSYM    DATA     BYTE      P2
      000000B0H   SFRSYM    DATA     BYTE      P3
      000000BCH   SFRSYM    DATA     BYTE      ADC0CF
      000000E8H.7 SFRSYM    DATA     BIT       ADC0CN_ADEN
      000000F9H   SFRSYM    DATA     WORD      PCA0
      000000E6H   SFRSYM    DATA     BYTE      EIE1
      0000008FH   SFRSYM    DATA     BYTE      PSCTL
      000000E4H   SFRSYM    DATA     BYTE      IT01CF
      000000E8H   SFRSYM    DATA     BYTE      ADC0CN
      000000A4H   SFRSYM    DATA     BYTE      P0MDOUT
      000000D8H.6 SFRSYM    DATA     BIT       PCA0CN_CR
      000000A5H   SFRSYM    DATA     BYTE      P1MDOUT
      000000CBH   SFRSYM    DATA     BYTE      TMR2RLH
      000000A6H   SFRSYM    DATA     BYTE      P2MDOUT
      000000A8H   SFRSYM    DATA     BYTE      IE
      00000093H   SFRSYM    DATA     BYTE      TMR3RLH
      000000A7H   SFRSYM    DATA     BYTE      P3MDOUT
      000000F6H   SFRSYM    DATA     BYTE      EIP1
      000000F8H.0 SFRSYM    DATA     BIT       SPI0CN_SPIEN
      00000098H.2 SFRSYM    DATA     BIT       SCON0_RB8
      000000CAH   SFRSYM    DATA     BYTE      TMR2RLL
      000000FCH   SFRSYM    DATA     BYTE      PCA0CPH0
      000000E8H.6 SFRSYM    DATA     BIT       ADC0CN_ADTM
      00000092H   SFRSYM    DATA     BYTE      TMR3RLL
      000000EAH   SFRSYM    DATA     BYTE      PCA0CPH1
      00000098H.3 SFRSYM    DATA     BIT       SCON0_TB8
      000000F0H.0 SFRSYM    DATA     BIT       B_B0
      00000082H   SFRSYM    DATA     WORD      DP
      000000ECH   SFRSYM    DATA     BYTE      PCA0CPH2
      000000F0H.1 SFRSYM    DATA     BIT       B_B1
      000000C3H   SFRSYM    DATA     WORD      ADC0GT
      000000EEH   SFRSYM    DATA     BYTE      PCA0CPH3
      000000F0H.2 SFRSYM    DATA     BIT       B_B2
      000000FBH   SFRSYM    DATA     BYTE      PCA0CPL0
      000000FEH   SFRSYM    DATA     BYTE      PCA0CPH4
      000000F0H.3 SFRSYM    DATA     BIT       B_B3
      000000D9H   SFRSYM    DATA     BYTE      PCA0MD
LX51 LINKER/LOCATER V4.66.97.0                                                        12/02/2020  18:06:15  PAGE 46


      000000DAH   SFRSYM    DATA     BYTE      PCA0CPM0
      000000E9H   SFRSYM    DATA     BYTE      PCA0CPL1
      000000D8H   SFRSYM    DATA     BYTE      PCA0CN
      000000F0H.4 SFRSYM    DATA     BIT       B_B4
      000000DBH   SFRSYM    DATA     BYTE      PCA0CPM1
      000000EBH   SFRSYM    DATA     BYTE      PCA0CPL2
      000000F0H.5 SFRSYM    DATA     BIT       B_B5
      000000DCH   SFRSYM    DATA     BYTE      PCA0CPM2
      000000EDH   SFRSYM    DATA     BYTE      PCA0CPL3
      000000B8H   SFRSYM    DATA     BYTE      IP
      000000F0H.6 SFRSYM    DATA     BIT       B_B6
      000000C5H   SFRSYM    DATA     WORD      ADC0LT
      000000DDH   SFRSYM    DATA     BYTE      PCA0CPM3
      000000FDH   SFRSYM    DATA     BYTE      PCA0CPL4
      00000098H.5 SFRSYM    DATA     BIT       SCON0_MCE
      000000F0H.7 SFRSYM    DATA     BIT       B_B7
      000000DEH   SFRSYM    DATA     BYTE      PCA0CPM4
      000000E1H   SFRSYM    DATA     BYTE      XBR0
      000000C1H   SFRSYM    DATA     BYTE      SMB0CF
      000000E2H   SFRSYM    DATA     BYTE      XBR1
      000000AAH   SFRSYM    DATA     BYTE      EMI0CN
      000000C0H.2 SFRSYM    DATA     BIT       SMB0CN_ARBLOST
      000000E0H.0 SFRSYM    DATA     BIT       ACC_ACC0
      000000D1H   SFRSYM    DATA     BYTE      REF0CN
      000000F8H.1 SFRSYM    DATA     BIT       SPI0CN_TXBMT
      000000E0H.1 SFRSYM    DATA     BIT       ACC_ACC1
      000000C0H.0 SFRSYM    DATA     BIT       SMB0CN_SI
      000000E0H.2 SFRSYM    DATA     BIT       ACC_ACC2
      000000E0H.3 SFRSYM    DATA     BIT       ACC_ACC3
      00000081H   SFRSYM    DATA     BYTE      SP
      000000E0H.4 SFRSYM    DATA     BIT       ACC_ACC4
      000000E0H.5 SFRSYM    DATA     BIT       ACC_ACC5
      000000C0H   SFRSYM    DATA     BYTE      SMB0CN
      000000E0H.6 SFRSYM    DATA     BIT       ACC_ACC6
      000000CCH   SFRSYM    DATA     WORD      TMR2
      000000E0H.7 SFRSYM    DATA     BIT       ACC_ACC7
      00000094H   SFRSYM    DATA     WORD      TMR3
      000000FFH   SFRSYM    DATA     BYTE      VDM0CN
      000000F1H   SFRSYM    DATA     BYTE      P0MDIN
      0000009DH   SFRSYM    DATA     BYTE      CPT0MD
      0000009BH   SFRSYM    DATA     BYTE      CPT0CN
      00000098H.4 SFRSYM    DATA     BIT       SCON0_REN
      000000F2H   SFRSYM    DATA     BYTE      P1MDIN
      0000009CH   SFRSYM    DATA     BYTE      CPT1MD
      0000009AH   SFRSYM    DATA     BYTE      CPT1CN
      000000F3H   SFRSYM    DATA     BYTE      P2MDIN
      000000F4H   SFRSYM    DATA     BYTE      P3MDIN
      000000C8H.7 SFRSYM    DATA     BIT       TMR2CN_TF2H
      000000C8H.3 SFRSYM    DATA     BIT       TMR2CN_T2SPLIT
      000000F8H   SFRSYM    DATA     BYTE      SPI0CN
      000000D0H.3 SFRSYM    DATA     BIT       PSW_RS0
      00000087H   SFRSYM    DATA     BYTE      PCON
      000000C8H.6 SFRSYM    DATA     BIT       TMR2CN_TF2L
      000000D0H.4 SFRSYM    DATA     BIT       PSW_RS1
      000000E8H.0 SFRSYM    DATA     BIT       ADC0CN_ADCM0
      000000E8H.1 SFRSYM    DATA     BIT       ADC0CN_ADCM1
      000000E8H.2 SFRSYM    DATA     BIT       ADC0CN_ADCM2
      000000E8H.3 SFRSYM    DATA     BIT       ADC0CN_ADWINT
      00000089H   SFRSYM    DATA     BYTE      TMOD
      00000088H   SFRSYM    DATA     BYTE      TCON
      000000E8H.4 SFRSYM    DATA     BIT       ADC0CN_ADBUSY
      000000F8H.5 SFRSYM    DATA     BIT       SPI0CN_MODF
LX51 LINKER/LOCATER V4.66.97.0                                                        12/02/2020  18:06:15  PAGE 47


      000000D0H.0 SFRSYM    DATA     BIT       PSW_PARITY
      000000A8H.4 SFRSYM    DATA     BIT       IE_ES0
      000000A8H.1 SFRSYM    DATA     BIT       IE_ET0
      000000C8H   SFRSYM    DATA     BYTE      TMR2CN
      000000A8H.3 SFRSYM    DATA     BIT       IE_ET1
      00000091H   SFRSYM    DATA     BYTE      TMR3CN
      000000D4H   SFRSYM    DATA     BYTE      P0SKIP
      000000A8H.5 SFRSYM    DATA     BIT       IE_ET2
      000000D5H   SFRSYM    DATA     BYTE      P1SKIP
      000000D6H   SFRSYM    DATA     BYTE      P2SKIP
      000000A8H.0 SFRSYM    DATA     BIT       IE_EX0
      000000A8H.2 SFRSYM    DATA     BIT       IE_EX1
      0000009FH   SFRSYM    DATA     BYTE      CPT0MX
      00000098H.7 SFRSYM    DATA     BIT       SCON0_SMODE
      000000B3H   SFRSYM    DATA     BYTE      OSCICL
      0000009EH   SFRSYM    DATA     BYTE      CPT1MX
      000000A9H   SFRSYM    DATA     BYTE      CLKSEL
      000000B2H   SFRSYM    DATA     BYTE      OSCICN
      000000F0H   SFRSYM    DATA     BYTE      B
      000000BEH   SFRSYM    DATA     BYTE      ADC0H
      000000F8H.7 SFRSYM    DATA     BIT       SPI0CN_SPIF
      000000CAH   SFRSYM    DATA     WORD      TMR2RL
      000000BDH   SFRSYM    DATA     BYTE      ADC0L
      000000C8H.5 SFRSYM    DATA     BIT       TMR2CN_TF2LEN
      000000F8H.6 SFRSYM    DATA     BIT       SPI0CN_WCOL
      00000092H   SFRSYM    DATA     WORD      TMR3RL
      000000F8H.2 SFRSYM    DATA     BIT       SPI0CN_NSSMD0
      000000E0H   SFRSYM    DATA     BYTE      ACC
      000000F8H.3 SFRSYM    DATA     BIT       SPI0CN_NSSMD1
      000000FBH   SFRSYM    DATA     WORD      PCA0CP0
      000000E9H   SFRSYM    DATA     WORD      PCA0CP1
      000000EBH   SFRSYM    DATA     WORD      PCA0CP2
      000000EDH   SFRSYM    DATA     WORD      PCA0CP3
      0000008CH   SFRSYM    DATA     BYTE      TH0
      000000B8H.4 SFRSYM    DATA     BIT       IP_PS0
      000000FDH   SFRSYM    DATA     WORD      PCA0CP4
      0000008DH   SFRSYM    DATA     BYTE      TH1
      000000FAH   SFRSYM    DATA     BYTE      PCA0H
      000000B8H.1 SFRSYM    DATA     BIT       IP_PT0
      000000B8H.3 SFRSYM    DATA     BIT       IP_PT1
      000000B8H.5 SFRSYM    DATA     BIT       IP_PT2
      0000008AH   SFRSYM    DATA     BYTE      TL0
      000000B1H   SFRSYM    DATA     BYTE      OSCXCN
      000000D0H.5 SFRSYM    DATA     BIT       PSW_F0
      000000A8H.6 SFRSYM    DATA     BIT       IE_ESPI0
      0000008BH   SFRSYM    DATA     BYTE      TL1
      000000F9H   SFRSYM    DATA     BYTE      PCA0L
      000000D0H.1 SFRSYM    DATA     BIT       PSW_F1
      00000080H.0 SFRSYM    DATA     BIT       P0_B0
      000000B8H.0 SFRSYM    DATA     BIT       IP_PX0
      000000C8H.0 SFRSYM    DATA     BIT       TMR2CN_T2XCLK
      00000090H.0 SFRSYM    DATA     BIT       P1_B0
      00000080H.1 SFRSYM    DATA     BIT       P0_B1
      000000B8H.2 SFRSYM    DATA     BIT       IP_PX1
      00000088H.1 SFRSYM    DATA     BIT       TCON_IE0
      000000C0H.7 SFRSYM    DATA     BIT       SMB0CN_MASTER
      000000A0H.0 SFRSYM    DATA     BIT       P2_B0
      00000090H.1 SFRSYM    DATA     BIT       P1_B1
      00000080H.2 SFRSYM    DATA     BIT       P0_B2
      00000088H.3 SFRSYM    DATA     BIT       TCON_IE1
      000000C0H.1 SFRSYM    DATA     BIT       SMB0CN_ACK
      000000B0H.0 SFRSYM    DATA     BIT       P3_B0
LX51 LINKER/LOCATER V4.66.97.0                                                        12/02/2020  18:06:15  PAGE 48


      000000A0H.1 SFRSYM    DATA     BIT       P2_B1
      00000090H.2 SFRSYM    DATA     BIT       P1_B2
      00000080H.3 SFRSYM    DATA     BIT       P0_B3
      000000B0H.1 SFRSYM    DATA     BIT       P3_B1
      000000A0H.2 SFRSYM    DATA     BIT       P2_B2
      00000090H.3 SFRSYM    DATA     BIT       P1_B3
      00000080H.4 SFRSYM    DATA     BIT       P0_B4
      000000B0H.2 SFRSYM    DATA     BIT       P3_B2
      000000A0H.3 SFRSYM    DATA     BIT       P2_B3
      00000090H.4 SFRSYM    DATA     BIT       P1_B4
      00000080H.5 SFRSYM    DATA     BIT       P0_B5
      000000B0H.3 SFRSYM    DATA     BIT       P3_B3
      000000A0H.4 SFRSYM    DATA     BIT       P2_B4
      00000090H.5 SFRSYM    DATA     BIT       P1_B5
      00000080H.6 SFRSYM    DATA     BIT       P0_B6
      000000C0H.6 SFRSYM    DATA     BIT       SMB0CN_TXMODE
      000000B0H.4 SFRSYM    DATA     BIT       P3_B4
      000000A0H.5 SFRSYM    DATA     BIT       P2_B5
      00000090H.6 SFRSYM    DATA     BIT       P1_B6
      00000080H.7 SFRSYM    DATA     BIT       P0_B7
      000000A0H.6 SFRSYM    DATA     BIT       P2_B6
      00000090H.7 SFRSYM    DATA     BIT       P1_B7
      000000A0H.7 SFRSYM    DATA     BIT       P2_B7
      00000083H   SFRSYM    DATA     BYTE      DPH
      000000E8H.5 SFRSYM    DATA     BIT       ADC0CN_ADINT
      000000C4H   SFRSYM    DATA     BYTE      ADC0GTH
      000000D0H.6 SFRSYM    DATA     BIT       PSW_AC
      00000088H.5 SFRSYM    DATA     BIT       TCON_TF0
      00000098H.0 SFRSYM    DATA     BIT       SCON0_RI
      00000082H   SFRSYM    DATA     BYTE      DPL
      00000088H.7 SFRSYM    DATA     BIT       TCON_TF1
      00000099H   SFRSYM    DATA     BYTE      SBUF0
      000000C3H   SFRSYM    DATA     BYTE      ADC0GTL
      00000098H.1 SFRSYM    DATA     BIT       SCON0_TI
      000000C6H   SFRSYM    DATA     BYTE      ADC0LTH
      00000088H.0 SFRSYM    DATA     BIT       TCON_IT0
      000000EFH   SFRSYM    DATA     BYTE      RSTSRC
      00000088H.2 SFRSYM    DATA     BIT       TCON_IT1
      00000098H   SFRSYM    DATA     BYTE      SCON0
      000000BAH   SFRSYM    DATA     BYTE      AMX0N
      000000C5H   SFRSYM    DATA     BYTE      ADC0LTL
      000000B8H.6 SFRSYM    DATA     BIT       IP_PSPI0
      000000BBH   SFRSYM    DATA     BYTE      AMX0P
      00000088H.4 SFRSYM    DATA     BIT       TCON_TR0
      00000088H.6 SFRSYM    DATA     BIT       TCON_TR1
      000000C2H   SFRSYM    DATA     BYTE      SMB0DAT
      000000C0H.5 SFRSYM    DATA     BIT       SMB0CN_STA
      000000CDH   SFRSYM    DATA     BYTE      TMR2H
      000000A1H   SFRSYM    DATA     BYTE      SPI0CFG
      00000095H   SFRSYM    DATA     BYTE      TMR3H
      0000008EH   SFRSYM    DATA     BYTE      CKCON
      000000C8H.2 SFRSYM    DATA     BIT       TMR2CN_TR2
      000000CCH   SFRSYM    DATA     BYTE      TMR2L
      00000094H   SFRSYM    DATA     BYTE      TMR3L
      000000D8H.0 SFRSYM    DATA     BIT       PCA0CN_CCF0
      000000A8H.7 SFRSYM    DATA     BIT       IE_EA
      000000D8H.1 SFRSYM    DATA     BIT       PCA0CN_CCF1
      000000B6H   SFRSYM    DATA     BYTE      FLSCL
      000000D8H.2 SFRSYM    DATA     BIT       PCA0CN_CCF2
      000000D0H.7 SFRSYM    DATA     BIT       PSW_CY
      000000D8H.3 SFRSYM    DATA     BIT       PCA0CN_CCF3
      000000A3H   SFRSYM    DATA     BYTE      SPI0DAT
LX51 LINKER/LOCATER V4.66.97.0                                                        12/02/2020  18:06:15  PAGE 49


      000000D8H.4 SFRSYM    DATA     BIT       PCA0CN_CCF4
      000000BDH   SFRSYM    DATA     WORD      ADC0
      000000C0H.3 SFRSYM    DATA     BIT       SMB0CN_ACKRQ
      000000D0H   SFRSYM    DATA     BYTE      PSW
      000000C0H.4 SFRSYM    DATA     BIT       SMB0CN_STO
      000000B7H   SFRSYM    DATA     BYTE      FLKEY

      01001B09H   BLOCK     CODE     ---       LVL=0
      01001B09H   LINE      CODE     ---       #23
      01001B09H   LINE      CODE     ---       #24
      01001B09H   LINE      CODE     ---       #27
      01001B0CH   LINE      CODE     ---       #28
      ---         BLOCKEND  ---      ---       LVL=0

      0100173DH   BLOCK     CODE     ---       LVL=0
      0100173DH   LINE      CODE     ---       #30
      0100174AH   LINE      CODE     ---       #32
      01001752H   LINE      CODE     ---       #33
      01001752H   LINE      CODE     ---       #34
      01001755H   LINE      CODE     ---       #36
      0100175CH   LINE      CODE     ---       #37
      0100175DH   LINE      CODE     ---       #39
      01001766H   LINE      CODE     ---       #40
      0100176BH   LINE      CODE     ---       #46
      0100176BH   LINE      CODE     ---       #48
      01001773H   LINE      CODE     ---       #49
      01001773H   LINE      CODE     ---       #50
      01001776H   LINE      CODE     ---       #51
      01001781H   LINE      CODE     ---       #52
      01001781H   LINE      CODE     ---       #53
      01001788H   LINE      CODE     ---       #55
      01001788H   LINE      CODE     ---       #57
      0100178FH   LINE      CODE     ---       #58
      01001794H   LINE      CODE     ---       #59
      01001794H   LINE      CODE     ---       #60
      ---         BLOCKEND  ---      ---       LVL=0

      01001AE9H   BLOCK     CODE     ---       LVL=0
      01001AE9H   LINE      CODE     ---       #62
      01001AE9H   LINE      CODE     ---       #63
      01001AE9H   LINE      CODE     ---       #64
      01001AEDH   LINE      CODE     ---       #65
      01001AF0H   LINE      CODE     ---       #66
      01001AF3H   LINE      CODE     ---       #67
      ---         BLOCKEND  ---      ---       LVL=0

      010017F6H   BLOCK     CODE     ---       LVL=0
      010017F6H   BLOCK     CODE     NEAR LAB  LVL=1
      00000007H   SYMBOL    DATA     BYTE      i
      00000006H   SYMBOL    DATA     BYTE      len
      00000005H   SYMBOL    DATA     BYTE      temp
      ---         BLOCKEND  ---      ---       LVL=1
      010017F6H   LINE      CODE     ---       #69
      010017F6H   LINE      CODE     ---       #70
      010017F6H   LINE      CODE     ---       #71
      010017F6H   LINE      CODE     ---       #72
      010017FAH   LINE      CODE     ---       #74
      010017FCH   LINE      CODE     ---       #77
      01001805H   LINE      CODE     ---       #78
      01001809H   LINE      CODE     ---       #79
      0100180BH   LINE      CODE     ---       #81
      01001812H   LINE      CODE     ---       #82
LX51 LINKER/LOCATER V4.66.97.0                                                        12/02/2020  18:06:15  PAGE 50


      01001824H   LINE      CODE     ---       #85
      0100182AH   LINE      CODE     ---       #86
      0100182BH   LINE      CODE     ---       #87
      01001832H   LINE      CODE     ---       #88
      01001842H   LINE      CODE     ---       #91
      01001847H   LINE      CODE     ---       #92
      ---         BLOCKEND  ---      ---       LVL=0

      ---         MODULE    ---      ---       ?C?FPADD
      0100003DH   PUBLIC    CODE     ---       ?C?FPADD
      01000039H   PUBLIC    CODE     ---       ?C?FPSUB

      ---         MODULE    ---      ---       ?C?FPMUL
      0100012EH   PUBLIC    CODE     ---       ?C?FPMUL

      ---         MODULE    ---      ---       ?C?FPDIV
      01000237H   PUBLIC    CODE     ---       ?C?FPDIV

      ---         MODULE    ---      ---       ?C?FPCMP
      010002D6H   PUBLIC    CODE     ---       ?C?FPCMP
      010002D4H   PUBLIC    CODE     ---       ?C?FPCMP3

      ---         MODULE    ---      ---       ?C?FCAST
      01000357H   PUBLIC    CODE     ---       ?C?FCASTC
      01000352H   PUBLIC    CODE     ---       ?C?FCASTI
      0100034DH   PUBLIC    CODE     ---       ?C?FCASTL

      ---         MODULE    ---      ---       ?C?CASTF
      0100038BH   PUBLIC    CODE     ---       ?C?CASTF

      ---         MODULE    ---      ---       ?C?FPGETOPN
      010003C2H   PUBLIC    CODE     ---       ?C?FPGETOPN2
      010003F7H   PUBLIC    CODE     ---       ?C?FPNANRESULT
      01000401H   PUBLIC    CODE     ---       ?C?FPOVERFLOW
      010003D9H   PUBLIC    CODE     ---       ?C?FPRESULT
      010003EDH   PUBLIC    CODE     ---       ?C?FPRESULT2
      010003FEH   PUBLIC    CODE     ---       ?C?FPUNDERFLOW

      ---         MODULE    ---      ---       ?C_INIT
      01001340H   PUBLIC    CODE     ---       ?C_START

      ---         MODULE    ---      ---       ?C?CLDPTR
      0100040CH   PUBLIC    CODE     ---       ?C?CLDPTR

      ---         MODULE    ---      ---       ?C?CLDOPTR
      01000425H   PUBLIC    CODE     ---       ?C?CLDOPTR

      ---         MODULE    ---      ---       ?C?CSTPTR
      01000452H   PUBLIC    CODE     ---       ?C?CSTPTR

      ---         MODULE    ---      ---       ?C?CSTOPTR
      01000464H   PUBLIC    CODE     ---       ?C?CSTOPTR

      ---         MODULE    ---      ---       ?C?IMUL
      01000486H   PUBLIC    CODE     ---       ?C?IMUL

      ---         MODULE    ---      ---       ?C?ISTPTR
      01000498H   PUBLIC    CODE     ---       ?C?ISTPTR

      ---         MODULE    ---      ---       ?C?LMUL
      010004B7H   PUBLIC    CODE     ---       ?C?LMUL

LX51 LINKER/LOCATER V4.66.97.0                                                        12/02/2020  18:06:15  PAGE 51


      ---         MODULE    ---      ---       ?C?ULDIV
      01000542H   PUBLIC    CODE     ---       ?C?ULDIV

      ---         MODULE    ---      ---       ?C?LNEG
      010005D4H   PUBLIC    CODE     ---       ?C?LNEG

      ---         MODULE    ---      ---       ?C?ULCMP
      010005E2H   PUBLIC    CODE     ---       ?C?ULCMP

      ---         MODULE    ---      ---       ?C?ULSHR
      010005F3H   PUBLIC    CODE     ---       ?C?ULSHR

      ---         MODULE    ---      ---       ?C?LSHL
      01000606H   PUBLIC    CODE     ---       ?C?LSHL

      ---         MODULE    ---      ---       ?C?LSTPDATA
      01000619H   PUBLIC    CODE     ---       ?C?LSTPDATA

      ---         MODULE    ---      ---       ?C?LSTKPDATA
      01000625H   PUBLIC    CODE     ---       ?C?LSTKPDATA

Program Size: data=230.0 xdata=242 const=0 code=6924
LX51 RUN COMPLETE.  0 WARNING(S),  0 ERROR(S)
