LX51 LINKER/LOCATER V4.66.97.0                                                          01/28/2020  21:12:22  PAGE 1


LX51 LINKER/LOCATER V4.66.97.0, INVOKED BY:
D:\SILICONLABS\SIMPLICITYSTUDIO\V4\DEVELOPER\TOOLCHAINS\KEIL_8051\9.60\BIN\LX51.EXE ./F31x_Blinky.OBJ, ./cmd.OBJ, ./sta.
>> OBJ, ./src/SILABS_STARTUP.OBJ, ./src/adc.OBJ, ./src/spi.OBJ, ./src/sys.OBJ, ./src/timer.OBJ, ./src/uart.OBJ TO F31X_B
>> LINKY.OMF.CRBUILD REMOVEUNUSED PRINT (.\F31x_Blinky.m51) PAGEWIDTH (120) PAGELENGTH (65) CLASSES (ECODE (C:0X0-C:0X3D
>> FE), HCONST (C:0X0-C:0X3DFE), XDATA (X:0X0-X:0X3FF), HDATA (X:0X0-X:0X3FF))


CPU MODE:     8051 MODE
MEMORY MODEL: SMALL WITH FLOATING POINT ARITHMETIC


INPUT MODULES INCLUDED:
  ./F31x_Blinky.OBJ (F31X_BLINKY)
         COMMENT TYPE 0: C51 V9.60.0.0
  ./cmd.OBJ (CMD)
         COMMENT TYPE 0: C51 V9.60.0.0
  ./sta.OBJ (STA)
         COMMENT TYPE 0: C51 V9.60.0.0
  ./src/SILABS_STARTUP.OBJ (?C_STARTUP)
         COMMENT TYPE 0: AX51 V3.15.3.0
  ./src/adc.OBJ (ADC)
         COMMENT TYPE 0: C51 V9.60.0.0
  ./src/spi.OBJ (SPI)
         COMMENT TYPE 0: C51 V9.60.0.0
  ./src/sys.OBJ (SYS)
         COMMENT TYPE 0: C51 V9.60.0.0
  ./src/timer.OBJ (TIMER)
         COMMENT TYPE 0: C51 V9.60.0.0
  ./src/uart.OBJ (UART)
         COMMENT TYPE 0: C51 V9.60.0.0
  D:\SILICONLABS\SIMPLICITYSTUDIO\V4\DEVELOPER\TOOLCHAINS\KEIL_8051\9.60\LIB\C51FPS.LIB (?C?FPADD)
         COMMENT TYPE 1: A51 / ASM51 Assembler
  D:\SILICONLABS\SIMPLICITYSTUDIO\V4\DEVELOPER\TOOLCHAINS\KEIL_8051\9.60\LIB\C51FPS.LIB (?C?FPMUL)
         COMMENT TYPE 1: A51 / ASM51 Assembler
  D:\SILICONLABS\SIMPLICITYSTUDIO\V4\DEVELOPER\TOOLCHAINS\KEIL_8051\9.60\LIB\C51FPS.LIB (?C?FPDIV)
         COMMENT TYPE 1: A51 / ASM51 Assembler
  D:\SILICONLABS\SIMPLICITYSTUDIO\V4\DEVELOPER\TOOLCHAINS\KEIL_8051\9.60\LIB\C51FPS.LIB (?C?FPCMP)
         COMMENT TYPE 1: A51 / ASM51 Assembler
  D:\SILICONLABS\SIMPLICITYSTUDIO\V4\DEVELOPER\TOOLCHAINS\KEIL_8051\9.60\LIB\C51FPS.LIB (?C?FCAST)
         COMMENT TYPE 1: A51 / ASM51 Assembler
  D:\SILICONLABS\SIMPLICITYSTUDIO\V4\DEVELOPER\TOOLCHAINS\KEIL_8051\9.60\LIB\C51FPS.LIB (?C?CASTF)
         COMMENT TYPE 1: A51 / ASM51 Assembler
  D:\SILICONLABS\SIMPLICITYSTUDIO\V4\DEVELOPER\TOOLCHAINS\KEIL_8051\9.60\LIB\C51FPS.LIB (?C?FPGETOPN)
         COMMENT TYPE 1: A51 / ASM51 Assembler
  D:\SILICONLABS\SIMPLICITYSTUDIO\V4\DEVELOPER\TOOLCHAINS\KEIL_8051\9.60\LIB\C51S.LIB (?C_INIT)
         COMMENT TYPE 1: A51 / ASM51 Assembler
  D:\SILICONLABS\SIMPLICITYSTUDIO\V4\DEVELOPER\TOOLCHAINS\KEIL_8051\9.60\LIB\C51S.LIB (?C?CLDOPTR)
         COMMENT TYPE 1: A51 / ASM51 Assembler
  D:\SILICONLABS\SIMPLICITYSTUDIO\V4\DEVELOPER\TOOLCHAINS\KEIL_8051\9.60\LIB\C51S.LIB (?C?CSTPTR)
         COMMENT TYPE 1: A51 / ASM51 Assembler
  D:\SILICONLABS\SIMPLICITYSTUDIO\V4\DEVELOPER\TOOLCHAINS\KEIL_8051\9.60\LIB\C51S.LIB (?C?CSTOPTR)
         COMMENT TYPE 1: A51 / ASM51 Assembler
  D:\SILICONLABS\SIMPLICITYSTUDIO\V4\DEVELOPER\TOOLCHAINS\KEIL_8051\9.60\LIB\C51S.LIB (?C?IMUL)
         COMMENT TYPE 1: A51 / ASM51 Assembler
  D:\SILICONLABS\SIMPLICITYSTUDIO\V4\DEVELOPER\TOOLCHAINS\KEIL_8051\9.60\LIB\C51S.LIB (?C?ISTPTR)
         COMMENT TYPE 1: A51 / ASM51 Assembler
  D:\SILICONLABS\SIMPLICITYSTUDIO\V4\DEVELOPER\TOOLCHAINS\KEIL_8051\9.60\LIB\C51S.LIB (?C?LMUL)
         COMMENT TYPE 1: A51 / ASM51 Assembler
  D:\SILICONLABS\SIMPLICITYSTUDIO\V4\DEVELOPER\TOOLCHAINS\KEIL_8051\9.60\LIB\C51S.LIB (?C?ULDIV)
         COMMENT TYPE 1: A51 / ASM51 Assembler
  D:\SILICONLABS\SIMPLICITYSTUDIO\V4\DEVELOPER\TOOLCHAINS\KEIL_8051\9.60\LIB\C51S.LIB (?C?LNEG)
         COMMENT TYPE 1: A51 / ASM51 Assembler
  D:\SILICONLABS\SIMPLICITYSTUDIO\V4\DEVELOPER\TOOLCHAINS\KEIL_8051\9.60\LIB\C51S.LIB (?C?ULCMP)
LX51 LINKER/LOCATER V4.66.97.0                                                        01/28/2020  21:12:22  PAGE 2


         COMMENT TYPE 1: A51 / ASM51 Assembler
  D:\SILICONLABS\SIMPLICITYSTUDIO\V4\DEVELOPER\TOOLCHAINS\KEIL_8051\9.60\LIB\C51S.LIB (?C?ULSHR)
         COMMENT TYPE 1: A51 / ASM51 Assembler


ACTIVE MEMORY CLASSES OF MODULE:  F31X_BLINKY.OMF.CRBUILD (F31X_BLINKY)

BASE        START       END         USED      MEMORY CLASS
==========================================================
C:000000H   C:000000H   C:003DFEH             ECODE
C:000000H   C:000000H   C:003DFEH             HCONST
X:000000H   X:000000H   X:0003FFH             XDATA
X:000000H   X:000000H   X:0003FFH             HDATA
C:000000H   C:000000H   C:00FFFFH   0015DFH   CODE
I:000000H   I:000000H   I:00007FH   000064H   DATA
I:000000H   I:000000H   I:0000FFH   00003BH   IDATA


MEMORY MAP OF MODULE:  F31X_BLINKY.OMF.CRBUILD (F31X_BLINKY)


START     STOP      LENGTH    ALIGN  RELOC    MEMORY CLASS   SEGMENT NAME
=========================================================================

* * * * * * * * * * *   D A T A   M E M O R Y   * * * * * * * * * * * * *
000000H   000007H   000008H   ---    AT..     DATA           "REG BANK 0"
000008H   000032H   00002BH   BYTE   UNIT     DATA           _DATA_GROUP_
000033H   00004AH   000018H   BYTE   UNIT     DATA           ?DT?CMD
00004BH   000055H   00000BH   BYTE   UNIT     DATA           ?DT?UART
000056H   00005DH   000008H   BYTE   UNIT     DATA           ?DT?STA
00005EH   000061H   000004H   BYTE   UNIT     DATA           ?DT?SYS
000062H   000063H   000002H   BYTE   UNIT     DATA           ?DT?SPI
000064H   00008BH   000028H   BYTE   UNIT     IDATA          ?ID?CMD
00008CH   00009DH   000012H   BYTE   UNIT     IDATA          ?ID?UART
00009EH   00009EH   000001H   BYTE   UNIT     IDATA          ?STACK

* * * * * * * * * * *   C O D E   M E M O R Y   * * * * * * * * * * * * *
000000H   000002H   000003H   ---    OFFS..   CODE           ?CO?SILABS_STARTUP?3
000003H   000022H   000020H   BYTE   UNIT     CODE           ?PR?_ADC_GET?ADC
000023H   000025H   000003H   BYTE   OFFS..   CODE           ?UART?00023
000026H   000031H   00000CH   BYTE   UNIT     CODE           ?PR?SPI_INIT?SPI
000032H   000032H   000001H   ---    ---      **GAP**
000033H   000035H   000003H   BYTE   OFFS..   CODE           ?SPI?00033
000036H   0005ECH   0005B7H   BYTE   UNIT     CODE           ?C?LIB_CODE
0005EDH   000A46H   00045AH   BYTE   UNIT     CODE           ?PR?FRAME2CMDCONVERT?CMD
000A47H   000DE3H   00039DH   BYTE   UNIT     CODE           ?PR?_FTWGEN?CMD
000DE4H   000F82H   00019FH   BYTE   UNIT     CODE           ?PR?_FLOAT_FORMAT?STA
000F83H   0010B1H   00012FH   BYTE   UNIT     CODE           ?PR?_GCD?CMD
0010B2H   00115EH   0000ADH   BYTE   UNIT     CODE           ?PR?_STRING2LONG?CMD
00115FH   0011EDH   00008FH   BYTE   UNIT     CODE           ?C_C51STARTUP
0011EEH   001264H   000077H   BYTE   UNIT     CODE           ?C_INITSEG
001265H   0012C6H   000062H   BYTE   UNIT     CODE           ?PR?TIMER_GETUARTCOUNTER?TIMER
0012C7H   001322H   00005CH   BYTE   UNIT     CODE           ?PR?_TEAMPERATURE_CONVERT?STA
001323H   00137AH   000058H   BYTE   UNIT     CODE           ?PR?_UART_GETBUFF?UART
00137BH   0013C8H   00004EH   BYTE   UNIT     CODE           ?PR?MAIN?F31X_BLINKY
0013C9H   001413H   00004BH   BYTE   UNIT     CODE           ?PR?UART0_INTERRUPT?UART
001414H   00145BH   000048H   BYTE   UNIT     CODE           ?PR?SPI_GETCLOCKRATE?SPI
00145CH   0014A2H   000047H   BYTE   UNIT     CODE           ?PR?_FORMAT2CMD?CMD
0014A3H   0014E6H   000044H   BYTE   UNIT     CODE           ?PR?STATE_MSG?STA
0014E7H   001516H   000030H   BYTE   UNIT     CODE           ?PR?SPI0_INTERRUPT?SPI
001517H   001535H   00001FH   BYTE   UNIT     CODE           ?PR?_BUFFDEL?CMD
001536H   001551H   00001CH   BYTE   UNIT     CODE           ?PR?CMDCRCCALC?CMD
LX51 LINKER/LOCATER V4.66.97.0                                                        01/28/2020  21:12:22  PAGE 3


001552H   00156DH   00001CH   BYTE   UNIT     CODE           ?PR?INIT_DEVICE?SYS
00156EH   001583H   000016H   BYTE   UNIT     CODE           ?PR?PORT_IO_INIT?SYS
001584H   001596H   000013H   BYTE   UNIT     CODE           ?PR?_ADC_START?ADC
001597H   0015A6H   000010H   BYTE   UNIT     CODE           ?PR?ADC_INIT?ADC
0015A7H   0015B5H   00000FH   BYTE   UNIT     CODE           ?PR?TIMER_INIT?TIMER
0015B6H   0015BEH   000009H   BYTE   UNIT     CODE           ?PR?SPI_SEND?SPI
0015BFH   0015C7H   000009H   BYTE   UNIT     CODE           ?PR?UART_SEND?UART
0015C8H   0015CEH   000007H   BYTE   UNIT     CODE           ?PR?INTERRUPTS_INIT?SYS
0015CFH   0015D3H   000005H   BYTE   UNIT     CODE           ?PR?_BITE_CONVERT?STA
0015D4H   0015D7H   000004H   BYTE   UNIT     CODE           ?PR?SILABS_STARTUP?F31X_BLINKY
0015D8H   0015DBH   000004H   BYTE   UNIT     CODE           ?PR?OSCILLATOR_INIT?SYS
0015DCH   0015DFH   000004H   BYTE   UNIT     CODE           ?PR?UART_INIT?UART



OVERLAY MAP OF MODULE:   F31X_BLINKY.OMF.CRBUILD (F31X_BLINKY)


FUNCTION/MODULE                  BIT_GROUP   DATA_GROUP 
--> CALLED FUNCTION/MODULE      START  STOP  START  STOP
========================================================
?C_C51STARTUP                   ----- -----  ----- -----
  +--> SILABS_STARTUP/F31X_BLINKY
  +--> MAIN/F31X_BLINKY
  +--> ?C_INITSEG

SILABS_STARTUP/F31X_BLINKY      ----- -----  ----- -----

MAIN/F31X_BLINKY                ----- -----  0008H 000AH
  +--> INIT_DEVICE/SYS
  +--> _ADC_GET/ADC
  +--> _TEAMPERATURE_CONVERT/STA
  +--> _BITE_CONVERT/STA
  +--> STATE_MSG/STA
  +--> UART_SEND/UART
  +--> FRAME2CMDCONVERT/CMD
  +--> SPI_SEND/SPI
  +--> _ADC_START/ADC

INIT_DEVICE/SYS                 ----- -----  ----- -----
  +--> PORT_IO_INIT/SYS
  +--> OSCILLATOR_INIT/SYS
  +--> TIMER_INIT/TIMER
  +--> UART_INIT/UART
  +--> SPI_INIT/SPI
  +--> ADC_INIT/ADC
  +--> INTERRUPTS_INIT/SYS

PORT_IO_INIT/SYS                ----- -----  ----- -----

OSCILLATOR_INIT/SYS             ----- -----  ----- -----

TIMER_INIT/TIMER                ----- -----  ----- -----
  +--> TIMER_GETUARTCOUNTER/TIMER

TIMER_GETUARTCOUNTER/TIMER      ----- -----  000BH 000EH

UART_INIT/UART                  ----- -----  ----- -----

SPI_INIT/SPI                    ----- -----  ----- -----
  +--> SPI_GETCLOCKRATE/SPI

LX51 LINKER/LOCATER V4.66.97.0                                                        01/28/2020  21:12:22  PAGE 4


SPI_GETCLOCKRATE/SPI            ----- -----  000BH 000EH

ADC_INIT/ADC                    ----- -----  ----- -----

INTERRUPTS_INIT/SYS             ----- -----  ----- -----

_ADC_GET/ADC                    ----- -----  ----- -----

_TEAMPERATURE_CONVERT/STA       ----- -----  ----- -----

_BITE_CONVERT/STA               ----- -----  000BH 000CH

STATE_MSG/STA                   ----- -----  ----- -----
  +--> _FLOAT_FORMAT/STA

_FLOAT_FORMAT/STA               ----- -----  000BH 0014H

UART_SEND/UART                  ----- -----  ----- -----

FRAME2CMDCONVERT/CMD            ----- -----  000BH 000EH
  +--> _UART_GETBUFF/UART
  +--> _STRING2LONG/CMD
  +--> _FORMAT2CMD/CMD
  +--> _FTWGEN/CMD
  +--> CMDCRCCALC/CMD
  +--> _BUFFDEL/CMD

_UART_GETBUFF/UART              ----- -----  000FH 0012H

_STRING2LONG/CMD                ----- -----  000FH 001FH

_FORMAT2CMD/CMD                 ----- -----  000FH 0012H

_FTWGEN/CMD                     ----- -----  000FH 0026H
  +--> _GCD/CMD

_GCD/CMD                        ----- -----  0027H 0032H

CMDCRCCALC/CMD                  ----- -----  ----- -----

_BUFFDEL/CMD                    ----- -----  ----- -----

SPI_SEND/SPI                    ----- -----  ----- -----

_ADC_START/ADC                  ----- -----  ----- -----

?C_INITSEG                      ----- -----  ----- -----

*** NEW ROOT ******************

SPI0_INTERRUPT/SPI              ----- -----  ----- -----

*** NEW ROOT ******************

UART0_INTERRUPT/UART            ----- -----  ----- -----



PUBLIC SYMBOLS OF MODULE:  F31X_BLINKY.OMF.CRBUILD (F31X_BLINKY)


      VALUE       CLASS    TYPE      PUBLIC SYMBOL NAME
LX51 LINKER/LOCATER V4.66.97.0                                                        01/28/2020  21:12:22  PAGE 5


      =================================================
      00000027H   DATA     BYTE      ?_gcd?BYTE
      0100038BH   CODE     ---       ?C?CASTF
      0100040CH   CODE     ---       ?C?CLDOPTR
      00000000H   NUMBER   ---       ?C?CODESEG
      0100044BH   CODE     ---       ?C?CSTOPTR
      01000439H   CODE     ---       ?C?CSTPTR
      01000357H   CODE     ---       ?C?FCASTC
      01000352H   CODE     ---       ?C?FCASTI
      0100034DH   CODE     ---       ?C?FCASTL
      0100003DH   CODE     ---       ?C?FPADD
      010002D6H   CODE     ---       ?C?FPCMP
      010002D4H   CODE     ---       ?C?FPCMP3
      01000237H   CODE     ---       ?C?FPDIV
      010003C2H   CODE     ---       ?C?FPGETOPN2
      0100012EH   CODE     ---       ?C?FPMUL
      010003F7H   CODE     ---       ?C?FPNANRESULT
      01000401H   CODE     ---       ?C?FPOVERFLOW
      010003D9H   CODE     ---       ?C?FPRESULT
      010003EDH   CODE     ---       ?C?FPRESULT2
      01000039H   CODE     ---       ?C?FPSUB
      010003FEH   CODE     ---       ?C?FPUNDERFLOW
      0100046DH   CODE     ---       ?C?IMUL
      0100047FH   CODE     ---       ?C?ISTPTR
      0100049EH   CODE     ---       ?C?LMUL
      010005BBH   CODE     ---       ?C?LNEG
      010005C9H   CODE     ---       ?C?ULCMP
      01000529H   CODE     ---       ?C?ULDIV
      010005DAH   CODE     ---       ?C?ULSHR
      00000000H   NUMBER   ---       ?C?XDATASEG
      010011A9H   CODE     ---       ?C_START
      01000000H   CODE     NEAR LAB  ?C_STARTUP
      01000003H   CODE     ---       _ADC_Get
      01001584H   CODE     ---       _ADC_Start
      010015CFH   CODE     ---       _Bite_Convert
      01001517H   CODE     ---       _BuffDel
      01000DECH   CODE     ---       _Float_Format
      0100145CH   CODE     ---       _Format2Cmd
      01000A47H   CODE     ---       _FTWGen
      01000FB9H   CODE     ---       _gcd
      010010BAH   CODE     ---       _String2Long
      010012C7H   CODE     ---       _Teamperature_Convert
      01001323H   CODE     ---       _UART_GetBuff
*SFR* 000000E0H   DATA     BYTE      ACC
*SFR* 000000E0H.0 DATA     BIT       ACC_ACC0
*SFR* 000000E0H.1 DATA     BIT       ACC_ACC1
*SFR* 000000E0H.2 DATA     BIT       ACC_ACC2
*SFR* 000000E0H.3 DATA     BIT       ACC_ACC3
*SFR* 000000E0H.4 DATA     BIT       ACC_ACC4
*SFR* 000000E0H.5 DATA     BIT       ACC_ACC5
*SFR* 000000E0H.6 DATA     BIT       ACC_ACC6
*SFR* 000000E0H.7 DATA     BIT       ACC_ACC7
*SFR* 000000BDH   DATA     WORD      ADC0
*SFR* 000000BCH   DATA     BYTE      ADC0CF
*SFR* 000000E8H   DATA     BYTE      ADC0CN
*SFR* 000000E8H.4 DATA     BIT       ADC0CN_ADBUSY
*SFR* 000000E8H.0 DATA     BIT       ADC0CN_ADCM0
*SFR* 000000E8H.1 DATA     BIT       ADC0CN_ADCM1
*SFR* 000000E8H.2 DATA     BIT       ADC0CN_ADCM2
*SFR* 000000E8H.7 DATA     BIT       ADC0CN_ADEN
*SFR* 000000E8H.5 DATA     BIT       ADC0CN_ADINT
*SFR* 000000E8H.6 DATA     BIT       ADC0CN_ADTM
LX51 LINKER/LOCATER V4.66.97.0                                                        01/28/2020  21:12:22  PAGE 6


*SFR* 000000E8H.3 DATA     BIT       ADC0CN_ADWINT
*SFR* 000000C3H   DATA     WORD      ADC0GT
*SFR* 000000C4H   DATA     BYTE      ADC0GTH
*SFR* 000000C3H   DATA     BYTE      ADC0GTL
*SFR* 000000BEH   DATA     BYTE      ADC0H
*SFR* 000000BDH   DATA     BYTE      ADC0L
*SFR* 000000C5H   DATA     WORD      ADC0LT
*SFR* 000000C6H   DATA     BYTE      ADC0LTH
*SFR* 000000C5H   DATA     BYTE      ADC0LTL
      01001597H   CODE     ---       ADC_Init
*SFR* 000000BAH   DATA     BYTE      AMX0N
*SFR* 000000BBH   DATA     BYTE      AMX0P
*SFR* 000000F0H   DATA     BYTE      B
*SFR* 000000F0H.0 DATA     BIT       B_B0
*SFR* 000000F0H.1 DATA     BIT       B_B1
*SFR* 000000F0H.2 DATA     BIT       B_B2
*SFR* 000000F0H.3 DATA     BIT       B_B3
*SFR* 000000F0H.4 DATA     BIT       B_B4
*SFR* 000000F0H.5 DATA     BIT       B_B5
*SFR* 000000F0H.6 DATA     BIT       B_B6
*SFR* 000000F0H.7 DATA     BIT       B_B7
      00000056H   DATA     FLOAT     bite
*SFR* 0000008EH   DATA     BYTE      CKCON
*SFR* 000000A9H   DATA     BYTE      CLKSEL
      00000047H   DATA     FLOAT     clock_scale
      00000064H   IDATA    ---       cmd_msg
      01001536H   CODE     ---       CmdCrcCalc
*SFR* 0000009BH   DATA     BYTE      CPT0CN
*SFR* 0000009DH   DATA     BYTE      CPT0MD
*SFR* 0000009FH   DATA     BYTE      CPT0MX
*SFR* 0000009AH   DATA     BYTE      CPT1CN
*SFR* 0000009CH   DATA     BYTE      CPT1MD
*SFR* 0000009EH   DATA     BYTE      CPT1MX
*SFR* 00000082H   DATA     WORD      DP
*SFR* 00000083H   DATA     BYTE      DPH
*SFR* 00000082H   DATA     BYTE      DPL
*SFR* 000000E6H   DATA     BYTE      EIE1
*SFR* 000000F6H   DATA     BYTE      EIP1
*SFR* 000000AAH   DATA     BYTE      EMI0CN
*SFR* 000000B7H   DATA     BYTE      FLKEY
*SFR* 000000B6H   DATA     BYTE      FLSCL
      010005EDH   CODE     ---       Frame2CmdConvert
*SFR* 000000A8H   DATA     BYTE      IE
*SFR* 000000A8H.7 DATA     BIT       IE_EA
*SFR* 000000A8H.4 DATA     BIT       IE_ES0
*SFR* 000000A8H.6 DATA     BIT       IE_ESPI0
*SFR* 000000A8H.1 DATA     BIT       IE_ET0
*SFR* 000000A8H.3 DATA     BIT       IE_ET1
*SFR* 000000A8H.5 DATA     BIT       IE_ET2
*SFR* 000000A8H.0 DATA     BIT       IE_EX0
*SFR* 000000A8H.2 DATA     BIT       IE_EX1
      01001552H   CODE     ---       Init_Device
      010015C8H   CODE     ---       Interrupts_Init
*SFR* 000000B8H   DATA     BYTE      IP
*SFR* 000000B8H.4 DATA     BIT       IP_PS0
*SFR* 000000B8H.6 DATA     BIT       IP_PSPI0
*SFR* 000000B8H.1 DATA     BIT       IP_PT0
*SFR* 000000B8H.3 DATA     BIT       IP_PT1
*SFR* 000000B8H.5 DATA     BIT       IP_PT2
*SFR* 000000B8H.0 DATA     BIT       IP_PX0
*SFR* 000000B8H.2 DATA     BIT       IP_PX1
*SFR* 000000E4H   DATA     BYTE      IT01CF
LX51 LINKER/LOCATER V4.66.97.0                                                        01/28/2020  21:12:22  PAGE 7


      0100137BH   CODE     ---       main
*SFR* 000000B3H   DATA     BYTE      OSCICL
*SFR* 000000B2H   DATA     BYTE      OSCICN
      010015D8H   CODE     ---       Oscillator_Init
*SFR* 000000B1H   DATA     BYTE      OSCXCN
*SFR* 00000080H   DATA     BYTE      P0
*SFR* 00000080H.0 DATA     BIT       P0_B0
*SFR* 00000080H.1 DATA     BIT       P0_B1
*SFR* 00000080H.2 DATA     BIT       P0_B2
*SFR* 00000080H.3 DATA     BIT       P0_B3
*SFR* 00000080H.4 DATA     BIT       P0_B4
*SFR* 00000080H.5 DATA     BIT       P0_B5
*SFR* 00000080H.6 DATA     BIT       P0_B6
*SFR* 00000080H.7 DATA     BIT       P0_B7
*SFR* 000000F1H   DATA     BYTE      P0MDIN
*SFR* 000000A4H   DATA     BYTE      P0MDOUT
*SFR* 000000D4H   DATA     BYTE      P0SKIP
*SFR* 00000090H   DATA     BYTE      P1
*SFR* 00000090H.0 DATA     BIT       P1_B0
*SFR* 00000090H.1 DATA     BIT       P1_B1
*SFR* 00000090H.2 DATA     BIT       P1_B2
*SFR* 00000090H.3 DATA     BIT       P1_B3
*SFR* 00000090H.4 DATA     BIT       P1_B4
*SFR* 00000090H.5 DATA     BIT       P1_B5
*SFR* 00000090H.6 DATA     BIT       P1_B6
*SFR* 00000090H.7 DATA     BIT       P1_B7
*SFR* 000000F2H   DATA     BYTE      P1MDIN
*SFR* 000000A5H   DATA     BYTE      P1MDOUT
*SFR* 000000D5H   DATA     BYTE      P1SKIP
*SFR* 000000A0H   DATA     BYTE      P2
*SFR* 000000A0H.0 DATA     BIT       P2_B0
*SFR* 000000A0H.1 DATA     BIT       P2_B1
*SFR* 000000A0H.2 DATA     BIT       P2_B2
*SFR* 000000A0H.3 DATA     BIT       P2_B3
*SFR* 000000A0H.4 DATA     BIT       P2_B4
*SFR* 000000A0H.5 DATA     BIT       P2_B5
*SFR* 000000A0H.6 DATA     BIT       P2_B6
*SFR* 000000A0H.7 DATA     BIT       P2_B7
*SFR* 000000F3H   DATA     BYTE      P2MDIN
*SFR* 000000A6H   DATA     BYTE      P2MDOUT
*SFR* 000000D6H   DATA     BYTE      P2SKIP
*SFR* 000000B0H   DATA     BYTE      P3
*SFR* 000000B0H.0 DATA     BIT       P3_B0
*SFR* 000000B0H.1 DATA     BIT       P3_B1
*SFR* 000000B0H.2 DATA     BIT       P3_B2
*SFR* 000000B0H.3 DATA     BIT       P3_B3
*SFR* 000000B0H.4 DATA     BIT       P3_B4
*SFR* 000000F4H   DATA     BYTE      P3MDIN
*SFR* 000000A7H   DATA     BYTE      P3MDOUT
*SFR* 000000F9H   DATA     WORD      PCA0
*SFR* 000000D8H   DATA     BYTE      PCA0CN
*SFR* 000000D8H.0 DATA     BIT       PCA0CN_CCF0
*SFR* 000000D8H.1 DATA     BIT       PCA0CN_CCF1
*SFR* 000000D8H.2 DATA     BIT       PCA0CN_CCF2
*SFR* 000000D8H.3 DATA     BIT       PCA0CN_CCF3
*SFR* 000000D8H.4 DATA     BIT       PCA0CN_CCF4
*SFR* 000000D8H.7 DATA     BIT       PCA0CN_CF
*SFR* 000000D8H.6 DATA     BIT       PCA0CN_CR
*SFR* 000000FBH   DATA     WORD      PCA0CP0
*SFR* 000000E9H   DATA     WORD      PCA0CP1
*SFR* 000000EBH   DATA     WORD      PCA0CP2
*SFR* 000000EDH   DATA     WORD      PCA0CP3
LX51 LINKER/LOCATER V4.66.97.0                                                        01/28/2020  21:12:22  PAGE 8


*SFR* 000000FDH   DATA     WORD      PCA0CP4
*SFR* 000000FCH   DATA     BYTE      PCA0CPH0
*SFR* 000000EAH   DATA     BYTE      PCA0CPH1
*SFR* 000000ECH   DATA     BYTE      PCA0CPH2
*SFR* 000000EEH   DATA     BYTE      PCA0CPH3
*SFR* 000000FEH   DATA     BYTE      PCA0CPH4
*SFR* 000000FBH   DATA     BYTE      PCA0CPL0
*SFR* 000000E9H   DATA     BYTE      PCA0CPL1
*SFR* 000000EBH   DATA     BYTE      PCA0CPL2
*SFR* 000000EDH   DATA     BYTE      PCA0CPL3
*SFR* 000000FDH   DATA     BYTE      PCA0CPL4
*SFR* 000000DAH   DATA     BYTE      PCA0CPM0
*SFR* 000000DBH   DATA     BYTE      PCA0CPM1
*SFR* 000000DCH   DATA     BYTE      PCA0CPM2
*SFR* 000000DDH   DATA     BYTE      PCA0CPM3
*SFR* 000000DEH   DATA     BYTE      PCA0CPM4
*SFR* 000000FAH   DATA     BYTE      PCA0H
*SFR* 000000F9H   DATA     BYTE      PCA0L
*SFR* 000000D9H   DATA     BYTE      PCA0MD
*SFR* 00000087H   DATA     BYTE      PCON
      0100156EH   CODE     ---       Port_IO_Init
*SFR* 000000A0H   DATA     BYTE      PPAGE_SFR
*SFR* 0000008FH   DATA     BYTE      PSCTL
*SFR* 000000D0H   DATA     BYTE      PSW
*SFR* 000000D0H.6 DATA     BIT       PSW_AC
*SFR* 000000D0H.7 DATA     BIT       PSW_CY
*SFR* 000000D0H.5 DATA     BIT       PSW_F0
*SFR* 000000D0H.1 DATA     BIT       PSW_F1
*SFR* 000000D0H.2 DATA     BIT       PSW_OV
*SFR* 000000D0H.0 DATA     BIT       PSW_PARITY
*SFR* 000000D0H.3 DATA     BIT       PSW_RS0
*SFR* 000000D0H.4 DATA     BIT       PSW_RS1
*SFR* 000000D1H   DATA     BYTE      REF0CN
*SFR* 000000EFH   DATA     BYTE      RSTSRC
*SFR* 00000099H   DATA     BYTE      SBUF0
*SFR* 00000098H   DATA     BYTE      SCON0
*SFR* 00000098H.5 DATA     BIT       SCON0_MCE
*SFR* 00000098H.2 DATA     BIT       SCON0_RB8
*SFR* 00000098H.4 DATA     BIT       SCON0_REN
*SFR* 00000098H.0 DATA     BIT       SCON0_RI
*SFR* 00000098H.7 DATA     BIT       SCON0_SMODE
*SFR* 00000098H.3 DATA     BIT       SCON0_TB8
*SFR* 00000098H.1 DATA     BIT       SCON0_TI
      010015D4H   CODE     ---       SiLabs_Startup
*SFR* 000000C1H   DATA     BYTE      SMB0CF
*SFR* 000000C0H   DATA     BYTE      SMB0CN
*SFR* 000000C0H.1 DATA     BIT       SMB0CN_ACK
*SFR* 000000C0H.3 DATA     BIT       SMB0CN_ACKRQ
*SFR* 000000C0H.2 DATA     BIT       SMB0CN_ARBLOST
*SFR* 000000C0H.7 DATA     BIT       SMB0CN_MASTER
*SFR* 000000C0H.0 DATA     BIT       SMB0CN_SI
*SFR* 000000C0H.5 DATA     BIT       SMB0CN_STA
*SFR* 000000C0H.4 DATA     BIT       SMB0CN_STO
*SFR* 000000C0H.6 DATA     BIT       SMB0CN_TXMODE
*SFR* 000000C2H   DATA     BYTE      SMB0DAT
*SFR* 00000081H   DATA     BYTE      SP
      010014E7H   CODE     ---       SPI0_Interrupt
*SFR* 000000A1H   DATA     BYTE      SPI0CFG
*SFR* 000000A2H   DATA     BYTE      SPI0CKR
*SFR* 000000F8H   DATA     BYTE      SPI0CN
*SFR* 000000F8H.5 DATA     BIT       SPI0CN_MODF
*SFR* 000000F8H.2 DATA     BIT       SPI0CN_NSSMD0
LX51 LINKER/LOCATER V4.66.97.0                                                        01/28/2020  21:12:22  PAGE 9


*SFR* 000000F8H.3 DATA     BIT       SPI0CN_NSSMD1
*SFR* 000000F8H.4 DATA     BIT       SPI0CN_RXOVRN
*SFR* 000000F8H.0 DATA     BIT       SPI0CN_SPIEN
*SFR* 000000F8H.7 DATA     BIT       SPI0CN_SPIF
*SFR* 000000F8H.1 DATA     BIT       SPI0CN_TXBMT
*SFR* 000000F8H.6 DATA     BIT       SPI0CN_WCOL
*SFR* 000000A3H   DATA     BYTE      SPI0DAT
      01001414H   CODE     ---       SPI_GetClockRate
      01000026H   CODE     ---       SPI_Init
      010015B6H   CODE     ---       SPI_Send
      00000062H   DATA     BYTE      sta_cmd_send_complete
      00000063H   DATA     BYTE      sta_cmd_send_count
      0000008CH   IDATA    ---       sta_msg
      0000004CH   DATA     BYTE      sta_msg_len
      00000053H   DATA     BYTE      sta_msg_send_complete
      0000004BH   DATA     BYTE      sta_msg_send_count
      010014A3H   CODE     ---       State_Msg
      00000042H   DATA     FLOAT     step_scale
      0000005EH   DATA     DWORD     Sys_Clk
*SFR* 00000088H   DATA     BYTE      TCON
*SFR* 00000088H.1 DATA     BIT       TCON_IE0
*SFR* 00000088H.3 DATA     BIT       TCON_IE1
*SFR* 00000088H.0 DATA     BIT       TCON_IT0
*SFR* 00000088H.2 DATA     BIT       TCON_IT1
*SFR* 00000088H.5 DATA     BIT       TCON_TF0
*SFR* 00000088H.7 DATA     BIT       TCON_TF1
*SFR* 00000088H.4 DATA     BIT       TCON_TR0
*SFR* 00000088H.6 DATA     BIT       TCON_TR1
      0000005AH   DATA     FLOAT     temperature
*SFR* 0000008CH   DATA     BYTE      TH0
*SFR* 0000008DH   DATA     BYTE      TH1
      01001265H   CODE     ---       Timer_GetUartCounter
      010015A7H   CODE     ---       Timer_Init
*SFR* 0000008AH   DATA     BYTE      TL0
*SFR* 0000008BH   DATA     BYTE      TL1
*SFR* 00000089H   DATA     BYTE      TMOD
*SFR* 000000CCH   DATA     WORD      TMR2
*SFR* 000000C8H   DATA     BYTE      TMR2CN
*SFR* 000000C8H.3 DATA     BIT       TMR2CN_T2SPLIT
*SFR* 000000C8H.0 DATA     BIT       TMR2CN_T2XCLK
*SFR* 000000C8H.7 DATA     BIT       TMR2CN_TF2H
*SFR* 000000C8H.6 DATA     BIT       TMR2CN_TF2L
*SFR* 000000C8H.5 DATA     BIT       TMR2CN_TF2LEN
*SFR* 000000C8H.2 DATA     BIT       TMR2CN_TR2
*SFR* 000000CDH   DATA     BYTE      TMR2H
*SFR* 000000CCH   DATA     BYTE      TMR2L
*SFR* 000000CAH   DATA     WORD      TMR2RL
*SFR* 000000CBH   DATA     BYTE      TMR2RLH
*SFR* 000000CAH   DATA     BYTE      TMR2RLL
*SFR* 00000094H   DATA     WORD      TMR3
*SFR* 00000091H   DATA     BYTE      TMR3CN
*SFR* 00000095H   DATA     BYTE      TMR3H
*SFR* 00000094H   DATA     BYTE      TMR3L
*SFR* 00000092H   DATA     WORD      TMR3RL
*SFR* 00000093H   DATA     BYTE      TMR3RLH
*SFR* 00000092H   DATA     BYTE      TMR3RLL
      010013C9H   CODE     ---       UART0_Interrupt
      00000054H   DATA     WORD      Uart_Baud
      00000033H   DATA     ---       Uart_buff
      00000046H   DATA     BYTE      Uart_buff_size
      010015DCH   CODE     ---       UART_Init
      0000004DH   DATA     ---       Uart_Recv_buff
LX51 LINKER/LOCATER V4.66.97.0                                                        01/28/2020  21:12:22  PAGE 10


      00000052H   DATA     BYTE      Uart_Recv_buff_size
      010015BFH   CODE     ---       UART_Send
*SFR* 000000FFH   DATA     BYTE      VDM0CN
*SFR* 000000E1H   DATA     BYTE      XBR0
*SFR* 000000E2H   DATA     BYTE      XBR1



SYMBOL TABLE OF MODULE:  F31X_BLINKY.OMF.CRBUILD (F31X_BLINKY)

      VALUE       REP       CLASS    TYPE      SYMBOL NAME
      ====================================================
      ---         MODULE    ---      ---       F31X_BLINKY
      0100137BH   PUBLIC    CODE     ---       main
      010015D4H   PUBLIC    CODE     ---       SiLabs_Startup
      000000A2H   SFRSYM    DATA     BYTE      SPI0CKR
      00000080H   SFRSYM    DATA     BYTE      P0
      000000D0H.2 SFRSYM    DATA     BIT       PSW_OV
      000000D8H.7 SFRSYM    DATA     BIT       PCA0CN_CF
      00000090H   SFRSYM    DATA     BYTE      P1
      000000F8H.4 SFRSYM    DATA     BIT       SPI0CN_RXOVRN
      000000A0H   SFRSYM    DATA     BYTE      P2
      000000B0H   SFRSYM    DATA     BYTE      P3
      000000BCH   SFRSYM    DATA     BYTE      ADC0CF
      000000E8H.7 SFRSYM    DATA     BIT       ADC0CN_ADEN
      000000F9H   SFRSYM    DATA     WORD      PCA0
      000000E6H   SFRSYM    DATA     BYTE      EIE1
      0000008FH   SFRSYM    DATA     BYTE      PSCTL
      000000E4H   SFRSYM    DATA     BYTE      IT01CF
      000000E8H   SFRSYM    DATA     BYTE      ADC0CN
      000000A4H   SFRSYM    DATA     BYTE      P0MDOUT
      000000D8H.6 SFRSYM    DATA     BIT       PCA0CN_CR
      000000A5H   SFRSYM    DATA     BYTE      P1MDOUT
      000000CBH   SFRSYM    DATA     BYTE      TMR2RLH
      000000A6H   SFRSYM    DATA     BYTE      P2MDOUT
      000000A8H   SFRSYM    DATA     BYTE      IE
      00000093H   SFRSYM    DATA     BYTE      TMR3RLH
      000000A7H   SFRSYM    DATA     BYTE      P3MDOUT
      000000F6H   SFRSYM    DATA     BYTE      EIP1
      000000F8H.0 SFRSYM    DATA     BIT       SPI0CN_SPIEN
      00000098H.2 SFRSYM    DATA     BIT       SCON0_RB8
      000000CAH   SFRSYM    DATA     BYTE      TMR2RLL
      000000FCH   SFRSYM    DATA     BYTE      PCA0CPH0
      000000E8H.6 SFRSYM    DATA     BIT       ADC0CN_ADTM
      00000092H   SFRSYM    DATA     BYTE      TMR3RLL
      000000EAH   SFRSYM    DATA     BYTE      PCA0CPH1
      00000098H.3 SFRSYM    DATA     BIT       SCON0_TB8
      000000F0H.0 SFRSYM    DATA     BIT       B_B0
      00000082H   SFRSYM    DATA     WORD      DP
      000000ECH   SFRSYM    DATA     BYTE      PCA0CPH2
      000000F0H.1 SFRSYM    DATA     BIT       B_B1
      000000C3H   SFRSYM    DATA     WORD      ADC0GT
      000000EEH   SFRSYM    DATA     BYTE      PCA0CPH3
      000000F0H.2 SFRSYM    DATA     BIT       B_B2
      000000FBH   SFRSYM    DATA     BYTE      PCA0CPL0
      000000FEH   SFRSYM    DATA     BYTE      PCA0CPH4
      000000F0H.3 SFRSYM    DATA     BIT       B_B3
      000000D9H   SFRSYM    DATA     BYTE      PCA0MD
      000000DAH   SFRSYM    DATA     BYTE      PCA0CPM0
      000000E9H   SFRSYM    DATA     BYTE      PCA0CPL1
      000000D8H   SFRSYM    DATA     BYTE      PCA0CN
      000000F0H.4 SFRSYM    DATA     BIT       B_B4
LX51 LINKER/LOCATER V4.66.97.0                                                        01/28/2020  21:12:22  PAGE 11


      000000DBH   SFRSYM    DATA     BYTE      PCA0CPM1
      000000EBH   SFRSYM    DATA     BYTE      PCA0CPL2
      000000F0H.5 SFRSYM    DATA     BIT       B_B5
      000000DCH   SFRSYM    DATA     BYTE      PCA0CPM2
      000000EDH   SFRSYM    DATA     BYTE      PCA0CPL3
      000000B8H   SFRSYM    DATA     BYTE      IP
      000000F0H.6 SFRSYM    DATA     BIT       B_B6
      000000C5H   SFRSYM    DATA     WORD      ADC0LT
      000000DDH   SFRSYM    DATA     BYTE      PCA0CPM3
      000000FDH   SFRSYM    DATA     BYTE      PCA0CPL4
      00000098H.5 SFRSYM    DATA     BIT       SCON0_MCE
      000000F0H.7 SFRSYM    DATA     BIT       B_B7
      000000DEH   SFRSYM    DATA     BYTE      PCA0CPM4
      000000E1H   SFRSYM    DATA     BYTE      XBR0
      000000C1H   SFRSYM    DATA     BYTE      SMB0CF
      000000E2H   SFRSYM    DATA     BYTE      XBR1
      000000AAH   SFRSYM    DATA     BYTE      EMI0CN
      000000C0H.2 SFRSYM    DATA     BIT       SMB0CN_ARBLOST
      000000E0H.0 SFRSYM    DATA     BIT       ACC_ACC0
      000000D1H   SFRSYM    DATA     BYTE      REF0CN
      000000F8H.1 SFRSYM    DATA     BIT       SPI0CN_TXBMT
      000000E0H.1 SFRSYM    DATA     BIT       ACC_ACC1
      000000C0H.0 SFRSYM    DATA     BIT       SMB0CN_SI
      000000E0H.2 SFRSYM    DATA     BIT       ACC_ACC2
      000000E0H.3 SFRSYM    DATA     BIT       ACC_ACC3
      00000081H   SFRSYM    DATA     BYTE      SP
      000000E0H.4 SFRSYM    DATA     BIT       ACC_ACC4
      000000E0H.5 SFRSYM    DATA     BIT       ACC_ACC5
      000000C0H   SFRSYM    DATA     BYTE      SMB0CN
      000000E0H.6 SFRSYM    DATA     BIT       ACC_ACC6
      000000CCH   SFRSYM    DATA     WORD      TMR2
      000000E0H.7 SFRSYM    DATA     BIT       ACC_ACC7
      00000094H   SFRSYM    DATA     WORD      TMR3
      000000FFH   SFRSYM    DATA     BYTE      VDM0CN
      000000F1H   SFRSYM    DATA     BYTE      P0MDIN
      0000009DH   SFRSYM    DATA     BYTE      CPT0MD
      0000009BH   SFRSYM    DATA     BYTE      CPT0CN
      00000098H.4 SFRSYM    DATA     BIT       SCON0_REN
      000000F2H   SFRSYM    DATA     BYTE      P1MDIN
      0000009CH   SFRSYM    DATA     BYTE      CPT1MD
      0000009AH   SFRSYM    DATA     BYTE      CPT1CN
      000000F3H   SFRSYM    DATA     BYTE      P2MDIN
      000000F4H   SFRSYM    DATA     BYTE      P3MDIN
      000000C8H.7 SFRSYM    DATA     BIT       TMR2CN_TF2H
      000000C8H.3 SFRSYM    DATA     BIT       TMR2CN_T2SPLIT
      000000F8H   SFRSYM    DATA     BYTE      SPI0CN
      000000D0H.3 SFRSYM    DATA     BIT       PSW_RS0
      00000087H   SFRSYM    DATA     BYTE      PCON
      000000C8H.6 SFRSYM    DATA     BIT       TMR2CN_TF2L
      000000D0H.4 SFRSYM    DATA     BIT       PSW_RS1
      000000E8H.0 SFRSYM    DATA     BIT       ADC0CN_ADCM0
      000000E8H.1 SFRSYM    DATA     BIT       ADC0CN_ADCM1
      000000E8H.2 SFRSYM    DATA     BIT       ADC0CN_ADCM2
      000000E8H.3 SFRSYM    DATA     BIT       ADC0CN_ADWINT
      00000089H   SFRSYM    DATA     BYTE      TMOD
      00000088H   SFRSYM    DATA     BYTE      TCON
      000000E8H.4 SFRSYM    DATA     BIT       ADC0CN_ADBUSY
      000000F8H.5 SFRSYM    DATA     BIT       SPI0CN_MODF
      000000D0H.0 SFRSYM    DATA     BIT       PSW_PARITY
      000000A8H.4 SFRSYM    DATA     BIT       IE_ES0
      000000A8H.1 SFRSYM    DATA     BIT       IE_ET0
      000000C8H   SFRSYM    DATA     BYTE      TMR2CN
LX51 LINKER/LOCATER V4.66.97.0                                                        01/28/2020  21:12:22  PAGE 12


      000000A8H.3 SFRSYM    DATA     BIT       IE_ET1
      00000091H   SFRSYM    DATA     BYTE      TMR3CN
      000000D4H   SFRSYM    DATA     BYTE      P0SKIP
      000000A8H.5 SFRSYM    DATA     BIT       IE_ET2
      000000D5H   SFRSYM    DATA     BYTE      P1SKIP
      000000D6H   SFRSYM    DATA     BYTE      P2SKIP
      000000A8H.0 SFRSYM    DATA     BIT       IE_EX0
      000000A8H.2 SFRSYM    DATA     BIT       IE_EX1
      0000009FH   SFRSYM    DATA     BYTE      CPT0MX
      00000098H.7 SFRSYM    DATA     BIT       SCON0_SMODE
      000000B3H   SFRSYM    DATA     BYTE      OSCICL
      0000009EH   SFRSYM    DATA     BYTE      CPT1MX
      000000A9H   SFRSYM    DATA     BYTE      CLKSEL
      000000B2H   SFRSYM    DATA     BYTE      OSCICN
      000000F0H   SFRSYM    DATA     BYTE      B
      000000BEH   SFRSYM    DATA     BYTE      ADC0H
      000000F8H.7 SFRSYM    DATA     BIT       SPI0CN_SPIF
      000000CAH   SFRSYM    DATA     WORD      TMR2RL
      000000BDH   SFRSYM    DATA     BYTE      ADC0L
      000000C8H.5 SFRSYM    DATA     BIT       TMR2CN_TF2LEN
      000000F8H.6 SFRSYM    DATA     BIT       SPI0CN_WCOL
      00000092H   SFRSYM    DATA     WORD      TMR3RL
      000000F8H.2 SFRSYM    DATA     BIT       SPI0CN_NSSMD0
      000000E0H   SFRSYM    DATA     BYTE      ACC
      000000F8H.3 SFRSYM    DATA     BIT       SPI0CN_NSSMD1
      000000FBH   SFRSYM    DATA     WORD      PCA0CP0
      000000E9H   SFRSYM    DATA     WORD      PCA0CP1
      000000EBH   SFRSYM    DATA     WORD      PCA0CP2
      000000EDH   SFRSYM    DATA     WORD      PCA0CP3
      0000008CH   SFRSYM    DATA     BYTE      TH0
      000000B8H.4 SFRSYM    DATA     BIT       IP_PS0
      000000FDH   SFRSYM    DATA     WORD      PCA0CP4
      0000008DH   SFRSYM    DATA     BYTE      TH1
      000000FAH   SFRSYM    DATA     BYTE      PCA0H
      000000B8H.1 SFRSYM    DATA     BIT       IP_PT0
      000000B8H.3 SFRSYM    DATA     BIT       IP_PT1
      000000B8H.5 SFRSYM    DATA     BIT       IP_PT2
      0000008AH   SFRSYM    DATA     BYTE      TL0
      000000B1H   SFRSYM    DATA     BYTE      OSCXCN
      000000D0H.5 SFRSYM    DATA     BIT       PSW_F0
      000000A8H.6 SFRSYM    DATA     BIT       IE_ESPI0
      0000008BH   SFRSYM    DATA     BYTE      TL1
      000000F9H   SFRSYM    DATA     BYTE      PCA0L
      000000D0H.1 SFRSYM    DATA     BIT       PSW_F1
      00000080H.0 SFRSYM    DATA     BIT       P0_B0
      000000B8H.0 SFRSYM    DATA     BIT       IP_PX0
      000000C8H.0 SFRSYM    DATA     BIT       TMR2CN_T2XCLK
      00000090H.0 SFRSYM    DATA     BIT       P1_B0
      00000080H.1 SFRSYM    DATA     BIT       P0_B1
      000000B8H.2 SFRSYM    DATA     BIT       IP_PX1
      00000088H.1 SFRSYM    DATA     BIT       TCON_IE0
      000000C0H.7 SFRSYM    DATA     BIT       SMB0CN_MASTER
      000000A0H.0 SFRSYM    DATA     BIT       P2_B0
      00000090H.1 SFRSYM    DATA     BIT       P1_B1
      00000080H.2 SFRSYM    DATA     BIT       P0_B2
      00000088H.3 SFRSYM    DATA     BIT       TCON_IE1
      000000C0H.1 SFRSYM    DATA     BIT       SMB0CN_ACK
      000000B0H.0 SFRSYM    DATA     BIT       P3_B0
      000000A0H.1 SFRSYM    DATA     BIT       P2_B1
      00000090H.2 SFRSYM    DATA     BIT       P1_B2
      00000080H.3 SFRSYM    DATA     BIT       P0_B3
      000000B0H.1 SFRSYM    DATA     BIT       P3_B1
LX51 LINKER/LOCATER V4.66.97.0                                                        01/28/2020  21:12:22  PAGE 13


      000000A0H.2 SFRSYM    DATA     BIT       P2_B2
      00000090H.3 SFRSYM    DATA     BIT       P1_B3
      00000080H.4 SFRSYM    DATA     BIT       P0_B4
      000000B0H.2 SFRSYM    DATA     BIT       P3_B2
      000000A0H.3 SFRSYM    DATA     BIT       P2_B3
      00000090H.4 SFRSYM    DATA     BIT       P1_B4
      00000080H.5 SFRSYM    DATA     BIT       P0_B5
      000000B0H.3 SFRSYM    DATA     BIT       P3_B3
      000000A0H.4 SFRSYM    DATA     BIT       P2_B4
      00000090H.5 SFRSYM    DATA     BIT       P1_B5
      00000080H.6 SFRSYM    DATA     BIT       P0_B6
      000000C0H.6 SFRSYM    DATA     BIT       SMB0CN_TXMODE
      000000B0H.4 SFRSYM    DATA     BIT       P3_B4
      000000A0H.5 SFRSYM    DATA     BIT       P2_B5
      00000090H.6 SFRSYM    DATA     BIT       P1_B6
      00000080H.7 SFRSYM    DATA     BIT       P0_B7
      000000A0H.6 SFRSYM    DATA     BIT       P2_B6
      00000090H.7 SFRSYM    DATA     BIT       P1_B7
      000000A0H.7 SFRSYM    DATA     BIT       P2_B7
      00000083H   SFRSYM    DATA     BYTE      DPH
      000000E8H.5 SFRSYM    DATA     BIT       ADC0CN_ADINT
      000000C4H   SFRSYM    DATA     BYTE      ADC0GTH
      000000D0H.6 SFRSYM    DATA     BIT       PSW_AC
      00000088H.5 SFRSYM    DATA     BIT       TCON_TF0
      00000098H.0 SFRSYM    DATA     BIT       SCON0_RI
      00000082H   SFRSYM    DATA     BYTE      DPL
      00000088H.7 SFRSYM    DATA     BIT       TCON_TF1
      00000099H   SFRSYM    DATA     BYTE      SBUF0
      000000C3H   SFRSYM    DATA     BYTE      ADC0GTL
      00000098H.1 SFRSYM    DATA     BIT       SCON0_TI
      000000C6H   SFRSYM    DATA     BYTE      ADC0LTH
      00000088H.0 SFRSYM    DATA     BIT       TCON_IT0
      000000EFH   SFRSYM    DATA     BYTE      RSTSRC
      00000088H.2 SFRSYM    DATA     BIT       TCON_IT1
      00000098H   SFRSYM    DATA     BYTE      SCON0
      000000BAH   SFRSYM    DATA     BYTE      AMX0N
      000000C5H   SFRSYM    DATA     BYTE      ADC0LTL
      000000B8H.6 SFRSYM    DATA     BIT       IP_PSPI0
      000000BBH   SFRSYM    DATA     BYTE      AMX0P
      00000088H.4 SFRSYM    DATA     BIT       TCON_TR0
      00000088H.6 SFRSYM    DATA     BIT       TCON_TR1
      000000C2H   SFRSYM    DATA     BYTE      SMB0DAT
      000000C0H.5 SFRSYM    DATA     BIT       SMB0CN_STA
      000000CDH   SFRSYM    DATA     BYTE      TMR2H
      000000A1H   SFRSYM    DATA     BYTE      SPI0CFG
      00000095H   SFRSYM    DATA     BYTE      TMR3H
      0000008EH   SFRSYM    DATA     BYTE      CKCON
      000000C8H.2 SFRSYM    DATA     BIT       TMR2CN_TR2
      000000CCH   SFRSYM    DATA     BYTE      TMR2L
      00000094H   SFRSYM    DATA     BYTE      TMR3L
      000000D8H.0 SFRSYM    DATA     BIT       PCA0CN_CCF0
      000000A8H.7 SFRSYM    DATA     BIT       IE_EA
      000000D8H.1 SFRSYM    DATA     BIT       PCA0CN_CCF1
      000000B6H   SFRSYM    DATA     BYTE      FLSCL
      000000D8H.2 SFRSYM    DATA     BIT       PCA0CN_CCF2
      000000D0H.7 SFRSYM    DATA     BIT       PSW_CY
      000000D8H.3 SFRSYM    DATA     BIT       PCA0CN_CCF3
      000000A3H   SFRSYM    DATA     BYTE      SPI0DAT
      000000D8H.4 SFRSYM    DATA     BIT       PCA0CN_CCF4
      000000BDH   SFRSYM    DATA     WORD      ADC0
      000000C0H.3 SFRSYM    DATA     BIT       SMB0CN_ACKRQ
      000000D0H   SFRSYM    DATA     BYTE      PSW
LX51 LINKER/LOCATER V4.66.97.0                                                        01/28/2020  21:12:22  PAGE 14


      000000C0H.4 SFRSYM    DATA     BIT       SMB0CN_STO
      000000B7H   SFRSYM    DATA     BYTE      FLKEY

      010015D4H   BLOCK     CODE     ---       LVL=0
      010015D4H   LINE      CODE     ---       #27
      010015D4H   LINE      CODE     ---       #28
      010015D4H   LINE      CODE     ---       #29
      010015D7H   LINE      CODE     ---       #30
      ---         BLOCKEND  ---      ---       LVL=0

      0100137BH   BLOCK     CODE     ---       LVL=0
      0100137BH   BLOCK     CODE     NEAR LAB  LVL=1
      00000008H   SYMBOL    DATA     WORD      adc_var
      0000000AH   SYMBOL    DATA     BYTE      adc_target
      ---         BLOCKEND  ---      ---       LVL=1
      0100137BH   LINE      CODE     ---       #35
      0100137BH   LINE      CODE     ---       #36
      0100137BH   LINE      CODE     ---       #38
      0100137EH   LINE      CODE     ---       #40
      01001381H   LINE      CODE     ---       #42
      01001381H   LINE      CODE     ---       #43
      01001381H   LINE      CODE     ---       #44
      01001395H   LINE      CODE     ---       #45
      01001395H   LINE      CODE     ---       #46
      0100139DH   LINE      CODE     ---       #47
      010013A2H   LINE      CODE     ---       #48
      010013A5H   LINE      CODE     ---       #49
      010013A5H   LINE      CODE     ---       #51
      010013ABH   LINE      CODE     ---       #52
      010013ABH   LINE      CODE     ---       #53
      010013AEH   LINE      CODE     ---       #54
      010013B1H   LINE      CODE     ---       #55
      010013B1H   LINE      CODE     ---       #57
      010013BFH   LINE      CODE     ---       #58
      010013C2H   LINE      CODE     ---       #60
      010013C7H   LINE      CODE     ---       #61
      ---         BLOCKEND  ---      ---       LVL=0

      ---         MODULE    ---      ---       CMD
      00000047H   PUBLIC    DATA     FLOAT     clock_scale
      00000064H   PUBLIC    IDATA    ---       cmd_msg
      00000046H   PUBLIC    DATA     BYTE      Uart_buff_size
      00000042H   PUBLIC    DATA     FLOAT     step_scale
      00000033H   PUBLIC    DATA     ---       Uart_buff
      010005EDH   PUBLIC    CODE     ---       Frame2CmdConvert
      01001536H   PUBLIC    CODE     ---       CmdCrcCalc
      01001517H   PUBLIC    CODE     ---       _BuffDel
      01000A47H   PUBLIC    CODE     ---       _FTWGen
      0100145CH   PUBLIC    CODE     ---       _Format2Cmd
      010010BAH   PUBLIC    CODE     ---       _String2Long
      00000027H   PUBLIC    DATA     BYTE      ?_gcd?BYTE
      01000FB9H   PUBLIC    CODE     ---       _gcd

      01000F83H   BLOCK     CODE     ---       LVL=0
      ---         BLOCKEND  ---      ---       LVL=0

      01000FB9H   BLOCK     CODE     ---       LVL=0
      00000027H   SYMBOL    DATA     DWORD     x
      0000002BH   SYMBOL    DATA     DWORD     y
      0000002FH   SYMBOL    DATA     DWORD     gcdNum
      01000FC1H   BLOCK     CODE     NEAR LAB  LVL=1
      0000002FH   SYMBOL    DATA     DWORD     gcdNum
LX51 LINKER/LOCATER V4.66.97.0                                                        01/28/2020  21:12:22  PAGE 15


      ---         BLOCKEND  ---      ---       LVL=1
      01000FB9H   LINE      CODE     ---       #37
      01000FC1H   LINE      CODE     ---       #38
      01000FC1H   LINE      CODE     ---       #39
      01000FCBH   LINE      CODE     ---       #40
      01000FE4H   LINE      CODE     ---       #41
      01000FE4H   LINE      CODE     ---       #42
      01001007H   LINE      CODE     ---       #43
      01001007H   LINE      CODE     ---       #44
      0100101DH   LINE      CODE     ---       #45
      01001036H   LINE      CODE     ---       #46
      0100104FH   LINE      CODE     ---       #47
      01001052H   LINE      CODE     ---       #49
      01001052H   LINE      CODE     ---       #50
      01001068H   LINE      CODE     ---       #51
      01001083H   LINE      CODE     ---       #53
      0100109CH   LINE      CODE     ---       #54
      0100109CH   LINE      CODE     ---       #55
      0100109FH   LINE      CODE     ---       #56
      ---         BLOCKEND  ---      ---       LVL=0

      010010B2H   BLOCK     CODE     ---       LVL=0
      ---         BLOCKEND  ---      ---       LVL=0

      010010BAH   BLOCK     CODE     ---       LVL=0
      0000000FH   SYMBOL    DATA     ---       buf
      00000012H   SYMBOL    DATA     BYTE      dec
      00000013H   SYMBOL    DATA     BYTE      i
      00000014H   SYMBOL    DATA     DWORD     res
      00000018H   SYMBOL    DATA     DWORD     var
      0000001CH   SYMBOL    DATA     DWORD     temp
      010010C2H   BLOCK     CODE     NEAR LAB  LVL=1
      00000013H   SYMBOL    DATA     BYTE      i
      00000014H   SYMBOL    DATA     DWORD     res
      00000018H   SYMBOL    DATA     DWORD     var
      0000001CH   SYMBOL    DATA     DWORD     temp
      ---         BLOCKEND  ---      ---       LVL=1
      010010BAH   LINE      CODE     ---       #59
      010010C2H   LINE      CODE     ---       #60
      010010C2H   LINE      CODE     ---       #62
      010010D4H   LINE      CODE     ---       #63
      010010DDH   LINE      CODE     ---       #64
      010010DDH   LINE      CODE     ---       #65
      0100110BH   LINE      CODE     ---       #66
      01001121H   LINE      CODE     ---       #67
      01001139H   LINE      CODE     ---       #69
      01001152H   LINE      CODE     ---       #70
      01001156H   LINE      CODE     ---       #72
      0100115EH   LINE      CODE     ---       #73
      ---         BLOCKEND  ---      ---       LVL=0

      0100145CH   BLOCK     CODE     ---       LVL=0
      00000001H   SYMBOL    DATA     ---       cmd
      0000000FH   SYMBOL    DATA     DWORD     var
      0100145CH   LINE      CODE     ---       #75
      01001464H   LINE      CODE     ---       #76
      01001464H   LINE      CODE     ---       #77
      01001473H   LINE      CODE     ---       #78
      01001487H   LINE      CODE     ---       #79
      0100149BH   LINE      CODE     ---       #80
      ---         BLOCKEND  ---      ---       LVL=0

LX51 LINKER/LOCATER V4.66.97.0                                                        01/28/2020  21:12:22  PAGE 16


      01000A47H   BLOCK     CODE     ---       LVL=0
      0000000FH   SYMBOL    DATA     DWORD     freq
      01000A4FH   BLOCK     CODE     NEAR LAB  LVL=1
      00000013H   SYMBOL    DATA     DWORD     ftw
      00000017H   SYMBOL    DATA     DWORD     div
      0000001BH   SYMBOL    DATA     FLOAT     temp
      0000001FH   SYMBOL    DATA     FLOAT     m
      00000023H   SYMBOL    DATA     FLOAT     n
      ---         BLOCKEND  ---      ---       LVL=1
      01000A47H   LINE      CODE     ---       #83
      01000A4FH   LINE      CODE     ---       #84
      01000A4FH   LINE      CODE     ---       #85
      01000A58H   LINE      CODE     ---       #89
      01000A70H   LINE      CODE     ---       #90
      01000A8EH   LINE      CODE     ---       #91
      01000AADH   LINE      CODE     ---       #92
      01000ACBH   LINE      CODE     ---       #93
      01000AE5H   LINE      CODE     ---       #94
      01000AF7H   LINE      CODE     ---       #95
      01000B0AH   LINE      CODE     ---       #96
      01000B15H   LINE      CODE     ---       #98
      01000B24H   LINE      CODE     ---       #99
      01000B35H   LINE      CODE     ---       #100
      01000B46H   LINE      CODE     ---       #101
      01000B49H   LINE      CODE     ---       #103
      01000B5EH   LINE      CODE     ---       #104
      01000B7CH   LINE      CODE     ---       #105
      01000B9BH   LINE      CODE     ---       #106
      01000BB9H   LINE      CODE     ---       #107
      01000BD3H   LINE      CODE     ---       #108
      01000BE5H   LINE      CODE     ---       #109
      01000BF8H   LINE      CODE     ---       #110
      01000C03H   LINE      CODE     ---       #112
      01000C12H   LINE      CODE     ---       #113
      01000C23H   LINE      CODE     ---       #114
      01000C34H   LINE      CODE     ---       #115
      01000C37H   LINE      CODE     ---       #118
      01000C47H   LINE      CODE     ---       #119
      01000C47H   LINE      CODE     ---       #120
      01000C52H   LINE      CODE     ---       #121
      01000C71H   LINE      CODE     ---       #122
      01000C8FH   LINE      CODE     ---       #123
      01000CA9H   LINE      CODE     ---       #124
      01000CBBH   LINE      CODE     ---       #125
      01000CCEH   LINE      CODE     ---       #126
      01000CD9H   LINE      CODE     ---       #128
      01000CE8H   LINE      CODE     ---       #129
      01000CF9H   LINE      CODE     ---       #130
      01000D0AH   LINE      CODE     ---       #131
      01000D0DH   LINE      CODE     ---       #133
      01000D1DH   LINE      CODE     ---       #134
      01000D1DH   LINE      CODE     ---       #135
      01000D28H   LINE      CODE     ---       #136
      01000D47H   LINE      CODE     ---       #137
      01000D65H   LINE      CODE     ---       #138
      01000D7FH   LINE      CODE     ---       #139
      01000D91H   LINE      CODE     ---       #140
      01000DA4H   LINE      CODE     ---       #141
      01000DAFH   LINE      CODE     ---       #143
      01000DBEH   LINE      CODE     ---       #144
      01000DCFH   LINE      CODE     ---       #145
      01000DE0H   LINE      CODE     ---       #146
LX51 LINKER/LOCATER V4.66.97.0                                                        01/28/2020  21:12:22  PAGE 17


      01000DE3H   LINE      CODE     ---       #147
      ---         BLOCKEND  ---      ---       LVL=0

      01001517H   BLOCK     CODE     ---       LVL=0
      00000007H   SYMBOL    DATA     BYTE      len
      01001517H   BLOCK     CODE     NEAR LAB  LVL=1
      00000006H   SYMBOL    DATA     BYTE      i
      ---         BLOCKEND  ---      ---       LVL=1
      01001517H   LINE      CODE     ---       #149
      01001517H   LINE      CODE     ---       #150
      01001517H   LINE      CODE     ---       #152
      0100151DH   LINE      CODE     ---       #153
      01001525H   LINE      CODE     ---       #154
      01001535H   LINE      CODE     ---       #155
      ---         BLOCKEND  ---      ---       LVL=0

      01001536H   BLOCK     CODE     ---       LVL=0
      01001536H   BLOCK     CODE     NEAR LAB  LVL=1
      00000007H   SYMBOL    DATA     BYTE      i
      ---         BLOCKEND  ---      ---       LVL=1
      01001536H   LINE      CODE     ---       #157
      01001536H   LINE      CODE     ---       #158
      01001536H   LINE      CODE     ---       #160
      0100153AH   LINE      CODE     ---       #161
      01001545H   LINE      CODE     ---       #162
      01001551H   LINE      CODE     ---       #163
      ---         BLOCKEND  ---      ---       LVL=0

      010005EDH   BLOCK     CODE     ---       LVL=0
      010005EDH   BLOCK     CODE     NEAR LAB  LVL=1
      00000006H   SYMBOL    DATA     BYTE      len
      0000000BH   SYMBOL    DATA     DWORD     var
      ---         BLOCKEND  ---      ---       LVL=1
      010005EDH   LINE      CODE     ---       #165
      010005EDH   LINE      CODE     ---       #166
      010005EDH   LINE      CODE     ---       #170
      01000600H   LINE      CODE     ---       #171
      01000605H   LINE      CODE     ---       #173
      01000611H   LINE      CODE     ---       #174
      01000614H   LINE      CODE     ---       #176
      01000626H   LINE      CODE     ---       #179
      01000626H   LINE      CODE     ---       #180
      01000631H   LINE      CODE     ---       #181
      01000634H   LINE      CODE     ---       #183
      01000647H   LINE      CODE     ---       #184
      01000658H   LINE      CODE     ---       #185
      01000669H   LINE      CODE     ---       #186
      01000683H   LINE      CODE     ---       #187
      0100068CH   LINE      CODE     ---       #189
      0100068EH   LINE      CODE     ---       #190
      01000691H   LINE      CODE     ---       #191
      010006A3H   LINE      CODE     ---       #194
      010006A3H   LINE      CODE     ---       #195
      010006AEH   LINE      CODE     ---       #196
      010006B1H   LINE      CODE     ---       #198
      010006C4H   LINE      CODE     ---       #199
      010006DEH   LINE      CODE     ---       #200
      010006ECH   LINE      CODE     ---       #201
      010006EFH   LINE      CODE     ---       #203
      010006F1H   LINE      CODE     ---       #204
      010006F4H   LINE      CODE     ---       #205
      01000703H   LINE      CODE     ---       #208
LX51 LINKER/LOCATER V4.66.97.0                                                        01/28/2020  21:12:22  PAGE 18


      01000703H   LINE      CODE     ---       #209
      0100070EH   LINE      CODE     ---       #210
      01000711H   LINE      CODE     ---       #212
      01000713H   LINE      CODE     ---       #213
      01000716H   LINE      CODE     ---       #214
      01000728H   LINE      CODE     ---       #217
      01000728H   LINE      CODE     ---       #218
      01000733H   LINE      CODE     ---       #219
      01000736H   LINE      CODE     ---       #220
      0100073DH   LINE      CODE     ---       #221
      01000743H   LINE      CODE     ---       #222
      01000747H   LINE      CODE     ---       #223
      01000749H   LINE      CODE     ---       #224
      0100074CH   LINE      CODE     ---       #225
      0100075BH   LINE      CODE     ---       #228
      0100075BH   LINE      CODE     ---       #229
      01000766H   LINE      CODE     ---       #230
      01000769H   LINE      CODE     ---       #232
      0100076BH   LINE      CODE     ---       #233
      0100076EH   LINE      CODE     ---       #234
      01000786H   LINE      CODE     ---       #238
      01000786H   LINE      CODE     ---       #239
      01000791H   LINE      CODE     ---       #240
      01000794H   LINE      CODE     ---       #242
      010007A7H   LINE      CODE     ---       #243
      010007C0H   LINE      CODE     ---       #244
      010007D8H   LINE      CODE     ---       #246
      010007DBH   LINE      CODE     ---       #248
      010007DDH   LINE      CODE     ---       #249
      010007E0H   LINE      CODE     ---       #250
      010007F8H   LINE      CODE     ---       #254
      010007F8H   LINE      CODE     ---       #255
      01000803H   LINE      CODE     ---       #256
      01000806H   LINE      CODE     ---       #258
      01000819H   LINE      CODE     ---       #259
      01000833H   LINE      CODE     ---       #260
      0100083CH   LINE      CODE     ---       #261
      0100083EH   LINE      CODE     ---       #262
      01000841H   LINE      CODE     ---       #263
      01000859H   LINE      CODE     ---       #267
      01000859H   LINE      CODE     ---       #268
      01000864H   LINE      CODE     ---       #269
      01000867H   LINE      CODE     ---       #271
      0100086DH   LINE      CODE     ---       #272
      01000872H   LINE      CODE     ---       #273
      01000877H   LINE      CODE     ---       #274
      01000877H   LINE      CODE     ---       #275
      0100087CH   LINE      CODE     ---       #276
      01000881H   LINE      CODE     ---       #277
      01000883H   LINE      CODE     ---       #278
      01000888H   LINE      CODE     ---       #279
      01000888H   LINE      CODE     ---       #280
      0100088DH   LINE      CODE     ---       #281
      0100088DH   LINE      CODE     ---       #282
      0100088FH   LINE      CODE     ---       #283
      01000894H   LINE      CODE     ---       #284
      01000894H   LINE      CODE     ---       #285
      0100089AH   LINE      CODE     ---       #286
      0100089FH   LINE      CODE     ---       #287
      010008A1H   LINE      CODE     ---       #288
      010008A6H   LINE      CODE     ---       #289
      010008A6H   LINE      CODE     ---       #290
LX51 LINKER/LOCATER V4.66.97.0                                                        01/28/2020  21:12:22  PAGE 19


      010008ACH   LINE      CODE     ---       #291
      010008B1H   LINE      CODE     ---       #292
      010008B1H   LINE      CODE     ---       #293
      010008B3H   LINE      CODE     ---       #294
      010008B6H   LINE      CODE     ---       #295
      010008CEH   LINE      CODE     ---       #299
      010008CEH   LINE      CODE     ---       #300
      010008D9H   LINE      CODE     ---       #301
      010008DCH   LINE      CODE     ---       #302
      010008E7H   LINE      CODE     ---       #303
      010008E9H   LINE      CODE     ---       #304
      010008E9H   LINE      CODE     ---       #305
      010008ECH   LINE      CODE     ---       #306
      01000904H   LINE      CODE     ---       #310
      01000904H   LINE      CODE     ---       #311
      0100090FH   LINE      CODE     ---       #312
      01000912H   LINE      CODE     ---       #313
      0100091DH   LINE      CODE     ---       #314
      0100091FH   LINE      CODE     ---       #315
      0100091FH   LINE      CODE     ---       #316
      01000922H   LINE      CODE     ---       #317
      0100093AH   LINE      CODE     ---       #321
      0100093AH   LINE      CODE     ---       #322
      01000945H   LINE      CODE     ---       #323
      01000948H   LINE      CODE     ---       #324
      01000953H   LINE      CODE     ---       #325
      01000955H   LINE      CODE     ---       #326
      01000955H   LINE      CODE     ---       #327
      01000958H   LINE      CODE     ---       #328
      01000970H   LINE      CODE     ---       #332
      01000970H   LINE      CODE     ---       #333
      0100097BH   LINE      CODE     ---       #334
      0100097EH   LINE      CODE     ---       #335
      01000989H   LINE      CODE     ---       #336
      0100098BH   LINE      CODE     ---       #337
      0100098BH   LINE      CODE     ---       #338
      0100098DH   LINE      CODE     ---       #339
      010009A5H   LINE      CODE     ---       #343
      010009A5H   LINE      CODE     ---       #344
      010009B0H   LINE      CODE     ---       #345
      010009B3H   LINE      CODE     ---       #346
      010009BEH   LINE      CODE     ---       #347
      010009C0H   LINE      CODE     ---       #348
      010009C0H   LINE      CODE     ---       #349
      010009C2H   LINE      CODE     ---       #350
      010009DAH   LINE      CODE     ---       #354
      010009DAH   LINE      CODE     ---       #355
      010009E5H   LINE      CODE     ---       #356
      010009E8H   LINE      CODE     ---       #357
      010009F3H   LINE      CODE     ---       #358
      010009F7H   LINE      CODE     ---       #359
      010009F9H   LINE      CODE     ---       #360
      010009FBH   LINE      CODE     ---       #361
      01000A13H   LINE      CODE     ---       #365
      01000A13H   LINE      CODE     ---       #366
      01000A1EH   LINE      CODE     ---       #367
      01000A21H   LINE      CODE     ---       #368
      01000A2CH   LINE      CODE     ---       #369
      01000A30H   LINE      CODE     ---       #370
      01000A32H   LINE      CODE     ---       #371
      01000A35H   LINE      CODE     ---       #372
      01000A3AH   LINE      CODE     ---       #373
LX51 LINKER/LOCATER V4.66.97.0                                                        01/28/2020  21:12:22  PAGE 20


      01000A3DH   LINE      CODE     ---       #374
      01000A3DH   LINE      CODE     ---       #375
      01000A3FH   LINE      CODE     ---       #377
      01000A44H   LINE      CODE     ---       #379
      01000A46H   LINE      CODE     ---       #380
      ---         BLOCKEND  ---      ---       LVL=0

      ---         MODULE    ---      ---       STA
      0000005AH   PUBLIC    DATA     FLOAT     temperature
      00000056H   PUBLIC    DATA     FLOAT     bite
      010014A3H   PUBLIC    CODE     ---       State_Msg
      010015CFH   PUBLIC    CODE     ---       _Bite_Convert
      010012C7H   PUBLIC    CODE     ---       _Teamperature_Convert
      01000DECH   PUBLIC    CODE     ---       _Float_Format

      01000DE4H   BLOCK     CODE     ---       LVL=0
      ---         BLOCKEND  ---      ---       LVL=0

      01000DECH   BLOCK     CODE     ---       LVL=0
      0000000BH   SYMBOL    DATA     FLOAT     var
      0000000FH   SYMBOL    DATA     ---       pBuf
      00000012H   SYMBOL    DATA     WORD      byte
      00000014H   SYMBOL    DATA     BYTE      index
      01000DFAH   BLOCK     CODE     NEAR LAB  LVL=1
      00000012H   SYMBOL    DATA     WORD      byte
      00000014H   SYMBOL    DATA     BYTE      index
      ---         BLOCKEND  ---      ---       LVL=1
      01000DECH   LINE      CODE     ---       #15
      01000DFAH   LINE      CODE     ---       #16
      01000DFAH   LINE      CODE     ---       #18
      01000DFDH   LINE      CODE     ---       #21
      01000E0EH   LINE      CODE     ---       #22
      01000E0EH   LINE      CODE     ---       #23
      01000E1CH   LINE      CODE     ---       #24
      01000E1CH   LINE      CODE     ---       #25
      01000E1EH   LINE      CODE     ---       #27
      01000E1EH   LINE      CODE     ---       #28
      01000E37H   LINE      CODE     ---       #29
      01000E3DH   LINE      CODE     ---       #30
      01000E3DH   LINE      CODE     ---       #31
      01000E4FH   LINE      CODE     ---       #32
      01000E51H   LINE      CODE     ---       #33
      01000E51H   LINE      CODE     ---       #34
      01000E51H   LINE      CODE     ---       #37
      01000E8FH   LINE      CODE     ---       #38
      01000EA0H   LINE      CODE     ---       #39
      01000EA6H   LINE      CODE     ---       #40
      01000EA6H   LINE      CODE     ---       #41
      01000EB8H   LINE      CODE     ---       #42
      01000EBAH   LINE      CODE     ---       #43
      01000EBAH   LINE      CODE     ---       #46
      01000EF8H   LINE      CODE     ---       #47
      01000EFFH   LINE      CODE     ---       #48
      01000F11H   LINE      CODE     ---       #49
      01000F13H   LINE      CODE     ---       #52
      01000F1EH   LINE      CODE     ---       #53
      01000F20H   LINE      CODE     ---       #56
      01000F53H   LINE      CODE     ---       #57
      01000F65H   LINE      CODE     ---       #58
      01000F6CH   LINE      CODE     ---       #59
      01000F7EH   LINE      CODE     ---       #60
      01000F80H   LINE      CODE     ---       #62
LX51 LINKER/LOCATER V4.66.97.0                                                        01/28/2020  21:12:22  PAGE 21


      01000F82H   LINE      CODE     ---       #63
      ---         BLOCKEND  ---      ---       LVL=0

      010012C7H   BLOCK     CODE     ---       LVL=0
      00000006H   SYMBOL    DATA     WORD      adc_var
      010012C7H   LINE      CODE     ---       #65
      010012C7H   LINE      CODE     ---       #66
      010012C7H   LINE      CODE     ---       #67
      010012D7H   LINE      CODE     ---       #68
      010012E9H   LINE      CODE     ---       #69
      010012FCH   LINE      CODE     ---       #70
      0100130FH   LINE      CODE     ---       #71
      01001322H   LINE      CODE     ---       #72
      ---         BLOCKEND  ---      ---       LVL=0

      010015CFH   BLOCK     CODE     ---       LVL=0
      0000000BH   SYMBOL    DATA     WORD      adc_var
      010015CFH   LINE      CODE     ---       #74
      010015D3H   LINE      CODE     ---       #75
      010015D3H   LINE      CODE     ---       #77
      ---         BLOCKEND  ---      ---       LVL=0

      010014A3H   BLOCK     CODE     ---       LVL=0
      010014A3H   LINE      CODE     ---       #79
      010014A3H   LINE      CODE     ---       #80
      010014A3H   LINE      CODE     ---       #81
      010014A6H   LINE      CODE     ---       #82
      010014B6H   LINE      CODE     ---       #83
      010014BBH   LINE      CODE     ---       #84
      010014BDH   LINE      CODE     ---       #85
      010014CDH   LINE      CODE     ---       #87
      010014D2H   LINE      CODE     ---       #88
      010014D4H   LINE      CODE     ---       #89
      010014DBH   LINE      CODE     ---       #90
      010014DDH   LINE      CODE     ---       #92
      010014E4H   LINE      CODE     ---       #93
      010014E6H   LINE      CODE     ---       #94
      ---         BLOCKEND  ---      ---       LVL=0

      ---         MODULE    ---      ---       ?C_STARTUP
      01000000H   PUBLIC    CODE     NEAR LAB  ?C_STARTUP
      000000E0H   SFRSYM    DATA     BYTE      ACC
      000000F0H   SFRSYM    DATA     BYTE      B
      00000083H   SFRSYM    DATA     BYTE      DPH
      00000082H   SFRSYM    DATA     BYTE      DPL
      000000A0H   SFRSYM    DATA     BYTE      PPAGE_SFR
      00000081H   SFRSYM    DATA     BYTE      SP
      00000000H   SYMBOL    NUMBER   ---       IBPSTACK
      00000100H   SYMBOL    NUMBER   ---       IBPSTACKTOP
      00000080H   SYMBOL    NUMBER   ---       IDATALEN
      01001165H   SYMBOL    CODE     NEAR LAB  IDATALOOP
      00000000H   SYMBOL    NUMBER   ---       PBPSTACK
      00000100H   SYMBOL    NUMBER   ---       PBPSTACKTOP
      00000000H   SYMBOL    NUMBER   ---       PDATALEN
      00000000H   SYMBOL    NUMBER   ---       PDATASTART
      00000000H   SYMBOL    NUMBER   ---       PPAGE
      00000000H   SYMBOL    NUMBER   ---       PPAGEENABLE
      0100115FH   SYMBOL    CODE     NEAR LAB  STARTUP1
      00000000H   SYMBOL    NUMBER   ---       XBPSTACK
      00010000H   SYMBOL    NUMBER   ---       XBPSTACKTOP
      00000000H   SYMBOL    NUMBER   ---       XDATALEN
      00000000H   SYMBOL    NUMBER   ---       XDATASTART
LX51 LINKER/LOCATER V4.66.97.0                                                        01/28/2020  21:12:22  PAGE 22



      01000000H   BLOCK     CODE     NEAR LAB  LVL=0
      01000000H   LINE      CODE     ---       #126
      ---         BLOCKEND  ---      ---       LVL=0

      0100115FH   BLOCK     CODE     NEAR LAB  LVL=0
      0100115FH   LINE      CODE     ---       #134
      01001162H   LINE      CODE     ---       #138
      01001164H   LINE      CODE     ---       #139
      01001165H   LINE      CODE     ---       #140
      01001166H   LINE      CODE     ---       #141
      01001168H   LINE      CODE     ---       #190
      0100116BH   LINE      CODE     ---       #201
      ---         BLOCKEND  ---      ---       LVL=0

      ---         MODULE    ---      ---       ADC
      01001584H   PUBLIC    CODE     ---       _ADC_Start
      01000003H   PUBLIC    CODE     ---       _ADC_Get
      01001597H   PUBLIC    CODE     ---       ADC_Init
      000000A2H   SFRSYM    DATA     BYTE      SPI0CKR
      00000080H   SFRSYM    DATA     BYTE      P0
      000000D0H.2 SFRSYM    DATA     BIT       PSW_OV
      000000D8H.7 SFRSYM    DATA     BIT       PCA0CN_CF
      00000090H   SFRSYM    DATA     BYTE      P1
      000000F8H.4 SFRSYM    DATA     BIT       SPI0CN_RXOVRN
      000000A0H   SFRSYM    DATA     BYTE      P2
      000000B0H   SFRSYM    DATA     BYTE      P3
      000000BCH   SFRSYM    DATA     BYTE      ADC0CF
      000000E8H.7 SFRSYM    DATA     BIT       ADC0CN_ADEN
      000000F9H   SFRSYM    DATA     WORD      PCA0
      000000E6H   SFRSYM    DATA     BYTE      EIE1
      0000008FH   SFRSYM    DATA     BYTE      PSCTL
      000000E4H   SFRSYM    DATA     BYTE      IT01CF
      000000E8H   SFRSYM    DATA     BYTE      ADC0CN
      000000A4H   SFRSYM    DATA     BYTE      P0MDOUT
      000000D8H.6 SFRSYM    DATA     BIT       PCA0CN_CR
      000000A5H   SFRSYM    DATA     BYTE      P1MDOUT
      000000CBH   SFRSYM    DATA     BYTE      TMR2RLH
      000000A6H   SFRSYM    DATA     BYTE      P2MDOUT
      000000A8H   SFRSYM    DATA     BYTE      IE
      00000093H   SFRSYM    DATA     BYTE      TMR3RLH
      000000A7H   SFRSYM    DATA     BYTE      P3MDOUT
      000000F6H   SFRSYM    DATA     BYTE      EIP1
      000000F8H.0 SFRSYM    DATA     BIT       SPI0CN_SPIEN
      00000098H.2 SFRSYM    DATA     BIT       SCON0_RB8
      000000CAH   SFRSYM    DATA     BYTE      TMR2RLL
      000000FCH   SFRSYM    DATA     BYTE      PCA0CPH0
      000000E8H.6 SFRSYM    DATA     BIT       ADC0CN_ADTM
      00000092H   SFRSYM    DATA     BYTE      TMR3RLL
      000000EAH   SFRSYM    DATA     BYTE      PCA0CPH1
      00000098H.3 SFRSYM    DATA     BIT       SCON0_TB8
      000000F0H.0 SFRSYM    DATA     BIT       B_B0
      00000082H   SFRSYM    DATA     WORD      DP
      000000ECH   SFRSYM    DATA     BYTE      PCA0CPH2
      000000F0H.1 SFRSYM    DATA     BIT       B_B1
      000000C3H   SFRSYM    DATA     WORD      ADC0GT
      000000EEH   SFRSYM    DATA     BYTE      PCA0CPH3
      000000F0H.2 SFRSYM    DATA     BIT       B_B2
      000000FBH   SFRSYM    DATA     BYTE      PCA0CPL0
      000000FEH   SFRSYM    DATA     BYTE      PCA0CPH4
      000000F0H.3 SFRSYM    DATA     BIT       B_B3
      000000D9H   SFRSYM    DATA     BYTE      PCA0MD
LX51 LINKER/LOCATER V4.66.97.0                                                        01/28/2020  21:12:22  PAGE 23


      000000DAH   SFRSYM    DATA     BYTE      PCA0CPM0
      000000E9H   SFRSYM    DATA     BYTE      PCA0CPL1
      000000D8H   SFRSYM    DATA     BYTE      PCA0CN
      000000F0H.4 SFRSYM    DATA     BIT       B_B4
      000000DBH   SFRSYM    DATA     BYTE      PCA0CPM1
      000000EBH   SFRSYM    DATA     BYTE      PCA0CPL2
      000000F0H.5 SFRSYM    DATA     BIT       B_B5
      000000DCH   SFRSYM    DATA     BYTE      PCA0CPM2
      000000EDH   SFRSYM    DATA     BYTE      PCA0CPL3
      000000B8H   SFRSYM    DATA     BYTE      IP
      000000F0H.6 SFRSYM    DATA     BIT       B_B6
      000000C5H   SFRSYM    DATA     WORD      ADC0LT
      000000DDH   SFRSYM    DATA     BYTE      PCA0CPM3
      000000FDH   SFRSYM    DATA     BYTE      PCA0CPL4
      00000098H.5 SFRSYM    DATA     BIT       SCON0_MCE
      000000F0H.7 SFRSYM    DATA     BIT       B_B7
      000000DEH   SFRSYM    DATA     BYTE      PCA0CPM4
      000000E1H   SFRSYM    DATA     BYTE      XBR0
      000000C1H   SFRSYM    DATA     BYTE      SMB0CF
      000000E2H   SFRSYM    DATA     BYTE      XBR1
      000000AAH   SFRSYM    DATA     BYTE      EMI0CN
      000000C0H.2 SFRSYM    DATA     BIT       SMB0CN_ARBLOST
      000000E0H.0 SFRSYM    DATA     BIT       ACC_ACC0
      000000D1H   SFRSYM    DATA     BYTE      REF0CN
      000000F8H.1 SFRSYM    DATA     BIT       SPI0CN_TXBMT
      000000E0H.1 SFRSYM    DATA     BIT       ACC_ACC1
      000000C0H.0 SFRSYM    DATA     BIT       SMB0CN_SI
      000000E0H.2 SFRSYM    DATA     BIT       ACC_ACC2
      000000E0H.3 SFRSYM    DATA     BIT       ACC_ACC3
      00000081H   SFRSYM    DATA     BYTE      SP
      000000E0H.4 SFRSYM    DATA     BIT       ACC_ACC4
      000000E0H.5 SFRSYM    DATA     BIT       ACC_ACC5
      000000C0H   SFRSYM    DATA     BYTE      SMB0CN
      000000E0H.6 SFRSYM    DATA     BIT       ACC_ACC6
      000000CCH   SFRSYM    DATA     WORD      TMR2
      000000E0H.7 SFRSYM    DATA     BIT       ACC_ACC7
      00000094H   SFRSYM    DATA     WORD      TMR3
      000000FFH   SFRSYM    DATA     BYTE      VDM0CN
      000000F1H   SFRSYM    DATA     BYTE      P0MDIN
      0000009DH   SFRSYM    DATA     BYTE      CPT0MD
      0000009BH   SFRSYM    DATA     BYTE      CPT0CN
      00000098H.4 SFRSYM    DATA     BIT       SCON0_REN
      000000F2H   SFRSYM    DATA     BYTE      P1MDIN
      0000009CH   SFRSYM    DATA     BYTE      CPT1MD
      0000009AH   SFRSYM    DATA     BYTE      CPT1CN
      000000F3H   SFRSYM    DATA     BYTE      P2MDIN
      000000F4H   SFRSYM    DATA     BYTE      P3MDIN
      000000C8H.7 SFRSYM    DATA     BIT       TMR2CN_TF2H
      000000C8H.3 SFRSYM    DATA     BIT       TMR2CN_T2SPLIT
      000000F8H   SFRSYM    DATA     BYTE      SPI0CN
      000000D0H.3 SFRSYM    DATA     BIT       PSW_RS0
      00000087H   SFRSYM    DATA     BYTE      PCON
      000000C8H.6 SFRSYM    DATA     BIT       TMR2CN_TF2L
      000000D0H.4 SFRSYM    DATA     BIT       PSW_RS1
      000000E8H.0 SFRSYM    DATA     BIT       ADC0CN_ADCM0
      000000E8H.1 SFRSYM    DATA     BIT       ADC0CN_ADCM1
      000000E8H.2 SFRSYM    DATA     BIT       ADC0CN_ADCM2
      000000E8H.3 SFRSYM    DATA     BIT       ADC0CN_ADWINT
      00000089H   SFRSYM    DATA     BYTE      TMOD
      00000088H   SFRSYM    DATA     BYTE      TCON
      000000E8H.4 SFRSYM    DATA     BIT       ADC0CN_ADBUSY
      000000F8H.5 SFRSYM    DATA     BIT       SPI0CN_MODF
LX51 LINKER/LOCATER V4.66.97.0                                                        01/28/2020  21:12:22  PAGE 24


      000000D0H.0 SFRSYM    DATA     BIT       PSW_PARITY
      000000A8H.4 SFRSYM    DATA     BIT       IE_ES0
      000000A8H.1 SFRSYM    DATA     BIT       IE_ET0
      000000C8H   SFRSYM    DATA     BYTE      TMR2CN
      000000A8H.3 SFRSYM    DATA     BIT       IE_ET1
      00000091H   SFRSYM    DATA     BYTE      TMR3CN
      000000D4H   SFRSYM    DATA     BYTE      P0SKIP
      000000A8H.5 SFRSYM    DATA     BIT       IE_ET2
      000000D5H   SFRSYM    DATA     BYTE      P1SKIP
      000000D6H   SFRSYM    DATA     BYTE      P2SKIP
      000000A8H.0 SFRSYM    DATA     BIT       IE_EX0
      000000A8H.2 SFRSYM    DATA     BIT       IE_EX1
      0000009FH   SFRSYM    DATA     BYTE      CPT0MX
      00000098H.7 SFRSYM    DATA     BIT       SCON0_SMODE
      000000B3H   SFRSYM    DATA     BYTE      OSCICL
      0000009EH   SFRSYM    DATA     BYTE      CPT1MX
      000000A9H   SFRSYM    DATA     BYTE      CLKSEL
      000000B2H   SFRSYM    DATA     BYTE      OSCICN
      000000F0H   SFRSYM    DATA     BYTE      B
      000000BEH   SFRSYM    DATA     BYTE      ADC0H
      000000F8H.7 SFRSYM    DATA     BIT       SPI0CN_SPIF
      000000CAH   SFRSYM    DATA     WORD      TMR2RL
      000000BDH   SFRSYM    DATA     BYTE      ADC0L
      000000C8H.5 SFRSYM    DATA     BIT       TMR2CN_TF2LEN
      000000F8H.6 SFRSYM    DATA     BIT       SPI0CN_WCOL
      00000092H   SFRSYM    DATA     WORD      TMR3RL
      000000F8H.2 SFRSYM    DATA     BIT       SPI0CN_NSSMD0
      000000E0H   SFRSYM    DATA     BYTE      ACC
      000000F8H.3 SFRSYM    DATA     BIT       SPI0CN_NSSMD1
      000000FBH   SFRSYM    DATA     WORD      PCA0CP0
      000000E9H   SFRSYM    DATA     WORD      PCA0CP1
      000000EBH   SFRSYM    DATA     WORD      PCA0CP2
      000000EDH   SFRSYM    DATA     WORD      PCA0CP3
      0000008CH   SFRSYM    DATA     BYTE      TH0
      000000B8H.4 SFRSYM    DATA     BIT       IP_PS0
      000000FDH   SFRSYM    DATA     WORD      PCA0CP4
      0000008DH   SFRSYM    DATA     BYTE      TH1
      000000FAH   SFRSYM    DATA     BYTE      PCA0H
      000000B8H.1 SFRSYM    DATA     BIT       IP_PT0
      000000B8H.3 SFRSYM    DATA     BIT       IP_PT1
      000000B8H.5 SFRSYM    DATA     BIT       IP_PT2
      0000008AH   SFRSYM    DATA     BYTE      TL0
      000000B1H   SFRSYM    DATA     BYTE      OSCXCN
      000000D0H.5 SFRSYM    DATA     BIT       PSW_F0
      000000A8H.6 SFRSYM    DATA     BIT       IE_ESPI0
      0000008BH   SFRSYM    DATA     BYTE      TL1
      000000F9H   SFRSYM    DATA     BYTE      PCA0L
      000000D0H.1 SFRSYM    DATA     BIT       PSW_F1
      00000080H.0 SFRSYM    DATA     BIT       P0_B0
      000000B8H.0 SFRSYM    DATA     BIT       IP_PX0
      000000C8H.0 SFRSYM    DATA     BIT       TMR2CN_T2XCLK
      00000090H.0 SFRSYM    DATA     BIT       P1_B0
      00000080H.1 SFRSYM    DATA     BIT       P0_B1
      000000B8H.2 SFRSYM    DATA     BIT       IP_PX1
      00000088H.1 SFRSYM    DATA     BIT       TCON_IE0
      000000C0H.7 SFRSYM    DATA     BIT       SMB0CN_MASTER
      000000A0H.0 SFRSYM    DATA     BIT       P2_B0
      00000090H.1 SFRSYM    DATA     BIT       P1_B1
      00000080H.2 SFRSYM    DATA     BIT       P0_B2
      00000088H.3 SFRSYM    DATA     BIT       TCON_IE1
      000000C0H.1 SFRSYM    DATA     BIT       SMB0CN_ACK
      000000B0H.0 SFRSYM    DATA     BIT       P3_B0
LX51 LINKER/LOCATER V4.66.97.0                                                        01/28/2020  21:12:22  PAGE 25


      000000A0H.1 SFRSYM    DATA     BIT       P2_B1
      00000090H.2 SFRSYM    DATA     BIT       P1_B2
      00000080H.3 SFRSYM    DATA     BIT       P0_B3
      000000B0H.1 SFRSYM    DATA     BIT       P3_B1
      000000A0H.2 SFRSYM    DATA     BIT       P2_B2
      00000090H.3 SFRSYM    DATA     BIT       P1_B3
      00000080H.4 SFRSYM    DATA     BIT       P0_B4
      000000B0H.2 SFRSYM    DATA     BIT       P3_B2
      000000A0H.3 SFRSYM    DATA     BIT       P2_B3
      00000090H.4 SFRSYM    DATA     BIT       P1_B4
      00000080H.5 SFRSYM    DATA     BIT       P0_B5
      000000B0H.3 SFRSYM    DATA     BIT       P3_B3
      000000A0H.4 SFRSYM    DATA     BIT       P2_B4
      00000090H.5 SFRSYM    DATA     BIT       P1_B5
      00000080H.6 SFRSYM    DATA     BIT       P0_B6
      000000C0H.6 SFRSYM    DATA     BIT       SMB0CN_TXMODE
      000000B0H.4 SFRSYM    DATA     BIT       P3_B4
      000000A0H.5 SFRSYM    DATA     BIT       P2_B5
      00000090H.6 SFRSYM    DATA     BIT       P1_B6
      00000080H.7 SFRSYM    DATA     BIT       P0_B7
      000000A0H.6 SFRSYM    DATA     BIT       P2_B6
      00000090H.7 SFRSYM    DATA     BIT       P1_B7
      000000A0H.7 SFRSYM    DATA     BIT       P2_B7
      00000083H   SFRSYM    DATA     BYTE      DPH
      000000E8H.5 SFRSYM    DATA     BIT       ADC0CN_ADINT
      000000C4H   SFRSYM    DATA     BYTE      ADC0GTH
      000000D0H.6 SFRSYM    DATA     BIT       PSW_AC
      00000088H.5 SFRSYM    DATA     BIT       TCON_TF0
      00000098H.0 SFRSYM    DATA     BIT       SCON0_RI
      00000082H   SFRSYM    DATA     BYTE      DPL
      00000088H.7 SFRSYM    DATA     BIT       TCON_TF1
      00000099H   SFRSYM    DATA     BYTE      SBUF0
      000000C3H   SFRSYM    DATA     BYTE      ADC0GTL
      00000098H.1 SFRSYM    DATA     BIT       SCON0_TI
      000000C6H   SFRSYM    DATA     BYTE      ADC0LTH
      00000088H.0 SFRSYM    DATA     BIT       TCON_IT0
      000000EFH   SFRSYM    DATA     BYTE      RSTSRC
      00000088H.2 SFRSYM    DATA     BIT       TCON_IT1
      00000098H   SFRSYM    DATA     BYTE      SCON0
      000000BAH   SFRSYM    DATA     BYTE      AMX0N
      000000C5H   SFRSYM    DATA     BYTE      ADC0LTL
      000000B8H.6 SFRSYM    DATA     BIT       IP_PSPI0
      000000BBH   SFRSYM    DATA     BYTE      AMX0P
      00000088H.4 SFRSYM    DATA     BIT       TCON_TR0
      00000088H.6 SFRSYM    DATA     BIT       TCON_TR1
      000000C2H   SFRSYM    DATA     BYTE      SMB0DAT
      000000C0H.5 SFRSYM    DATA     BIT       SMB0CN_STA
      000000CDH   SFRSYM    DATA     BYTE      TMR2H
      000000A1H   SFRSYM    DATA     BYTE      SPI0CFG
      00000095H   SFRSYM    DATA     BYTE      TMR3H
      0000008EH   SFRSYM    DATA     BYTE      CKCON
      000000C8H.2 SFRSYM    DATA     BIT       TMR2CN_TR2
      000000CCH   SFRSYM    DATA     BYTE      TMR2L
      00000094H   SFRSYM    DATA     BYTE      TMR3L
      000000D8H.0 SFRSYM    DATA     BIT       PCA0CN_CCF0
      000000A8H.7 SFRSYM    DATA     BIT       IE_EA
      000000D8H.1 SFRSYM    DATA     BIT       PCA0CN_CCF1
      000000B6H   SFRSYM    DATA     BYTE      FLSCL
      000000D8H.2 SFRSYM    DATA     BIT       PCA0CN_CCF2
      000000D0H.7 SFRSYM    DATA     BIT       PSW_CY
      000000D8H.3 SFRSYM    DATA     BIT       PCA0CN_CCF3
      000000A3H   SFRSYM    DATA     BYTE      SPI0DAT
LX51 LINKER/LOCATER V4.66.97.0                                                        01/28/2020  21:12:22  PAGE 26


      000000D8H.4 SFRSYM    DATA     BIT       PCA0CN_CCF4
      000000BDH   SFRSYM    DATA     WORD      ADC0
      000000C0H.3 SFRSYM    DATA     BIT       SMB0CN_ACKRQ
      000000D0H   SFRSYM    DATA     BYTE      PSW
      000000C0H.4 SFRSYM    DATA     BIT       SMB0CN_STO
      000000B7H   SFRSYM    DATA     BYTE      FLKEY

      01001597H   BLOCK     CODE     ---       LVL=0
      01001597H   LINE      CODE     ---       #10
      01001597H   LINE      CODE     ---       #11
      01001597H   LINE      CODE     ---       #13
      0100159AH   LINE      CODE     ---       #15
      0100159DH   LINE      CODE     ---       #17
      010015A0H   LINE      CODE     ---       #19
      010015A3H   LINE      CODE     ---       #21
      010015A6H   LINE      CODE     ---       #22
      ---         BLOCKEND  ---      ---       LVL=0

      01000003H   BLOCK     CODE     ---       LVL=0
      00000001H   SYMBOL    DATA     ---       pVar
      01000003H   BLOCK     CODE     NEAR LAB  LVL=1
      00000006H   SYMBOL    DATA     WORD      adc_var
      ---         BLOCKEND  ---      ---       LVL=1
      01000003H   LINE      CODE     ---       #25
      01000003H   LINE      CODE     ---       #26
      01000003H   LINE      CODE     ---       #29
      0100000BH   LINE      CODE     ---       #30
      0100000BH   LINE      CODE     ---       #31
      0100000DH   LINE      CODE     ---       #32
      01000011H   LINE      CODE     ---       #33
      01000018H   LINE      CODE     ---       #35
      0100001DH   LINE      CODE     ---       #37
      01000020H   LINE      CODE     ---       #38
      01000020H   LINE      CODE     ---       #39
      01000022H   LINE      CODE     ---       #40
      ---         BLOCKEND  ---      ---       LVL=0

      01001584H   BLOCK     CODE     ---       LVL=0
      00000007H   SYMBOL    DATA     CHAR      target
      01001584H   LINE      CODE     ---       #42
      01001584H   LINE      CODE     ---       #43
      01001584H   LINE      CODE     ---       #44
      0100158BH   LINE      CODE     ---       #45
      01001590H   LINE      CODE     ---       #46
      01001593H   LINE      CODE     ---       #48
      01001596H   LINE      CODE     ---       #49
      ---         BLOCKEND  ---      ---       LVL=0

      ---         MODULE    ---      ---       SPI
      00000063H   PUBLIC    DATA     BYTE      sta_cmd_send_count
      00000062H   PUBLIC    DATA     BYTE      sta_cmd_send_complete
      010015B6H   PUBLIC    CODE     ---       SPI_Send
      010014E7H   PUBLIC    CODE     ---       SPI0_Interrupt
      01000026H   PUBLIC    CODE     ---       SPI_Init
      01001414H   PUBLIC    CODE     ---       SPI_GetClockRate
      000000A2H   SFRSYM    DATA     BYTE      SPI0CKR
      00000080H   SFRSYM    DATA     BYTE      P0
      000000D0H.2 SFRSYM    DATA     BIT       PSW_OV
      000000D8H.7 SFRSYM    DATA     BIT       PCA0CN_CF
      00000090H   SFRSYM    DATA     BYTE      P1
      000000F8H.4 SFRSYM    DATA     BIT       SPI0CN_RXOVRN
      000000A0H   SFRSYM    DATA     BYTE      P2
LX51 LINKER/LOCATER V4.66.97.0                                                        01/28/2020  21:12:22  PAGE 27


      000000B0H   SFRSYM    DATA     BYTE      P3
      000000BCH   SFRSYM    DATA     BYTE      ADC0CF
      000000E8H.7 SFRSYM    DATA     BIT       ADC0CN_ADEN
      000000F9H   SFRSYM    DATA     WORD      PCA0
      000000E6H   SFRSYM    DATA     BYTE      EIE1
      0000008FH   SFRSYM    DATA     BYTE      PSCTL
      000000E4H   SFRSYM    DATA     BYTE      IT01CF
      000000E8H   SFRSYM    DATA     BYTE      ADC0CN
      000000A4H   SFRSYM    DATA     BYTE      P0MDOUT
      000000D8H.6 SFRSYM    DATA     BIT       PCA0CN_CR
      000000A5H   SFRSYM    DATA     BYTE      P1MDOUT
      000000CBH   SFRSYM    DATA     BYTE      TMR2RLH
      000000A6H   SFRSYM    DATA     BYTE      P2MDOUT
      000000A8H   SFRSYM    DATA     BYTE      IE
      00000093H   SFRSYM    DATA     BYTE      TMR3RLH
      000000A7H   SFRSYM    DATA     BYTE      P3MDOUT
      000000F6H   SFRSYM    DATA     BYTE      EIP1
      000000F8H.0 SFRSYM    DATA     BIT       SPI0CN_SPIEN
      00000098H.2 SFRSYM    DATA     BIT       SCON0_RB8
      000000CAH   SFRSYM    DATA     BYTE      TMR2RLL
      000000FCH   SFRSYM    DATA     BYTE      PCA0CPH0
      000000E8H.6 SFRSYM    DATA     BIT       ADC0CN_ADTM
      00000092H   SFRSYM    DATA     BYTE      TMR3RLL
      000000EAH   SFRSYM    DATA     BYTE      PCA0CPH1
      00000098H.3 SFRSYM    DATA     BIT       SCON0_TB8
      000000F0H.0 SFRSYM    DATA     BIT       B_B0
      00000082H   SFRSYM    DATA     WORD      DP
      000000ECH   SFRSYM    DATA     BYTE      PCA0CPH2
      000000F0H.1 SFRSYM    DATA     BIT       B_B1
      000000C3H   SFRSYM    DATA     WORD      ADC0GT
      000000EEH   SFRSYM    DATA     BYTE      PCA0CPH3
      000000F0H.2 SFRSYM    DATA     BIT       B_B2
      000000FBH   SFRSYM    DATA     BYTE      PCA0CPL0
      000000FEH   SFRSYM    DATA     BYTE      PCA0CPH4
      000000F0H.3 SFRSYM    DATA     BIT       B_B3
      000000D9H   SFRSYM    DATA     BYTE      PCA0MD
      000000DAH   SFRSYM    DATA     BYTE      PCA0CPM0
      000000E9H   SFRSYM    DATA     BYTE      PCA0CPL1
      000000D8H   SFRSYM    DATA     BYTE      PCA0CN
      000000F0H.4 SFRSYM    DATA     BIT       B_B4
      000000DBH   SFRSYM    DATA     BYTE      PCA0CPM1
      000000EBH   SFRSYM    DATA     BYTE      PCA0CPL2
      000000F0H.5 SFRSYM    DATA     BIT       B_B5
      000000DCH   SFRSYM    DATA     BYTE      PCA0CPM2
      000000EDH   SFRSYM    DATA     BYTE      PCA0CPL3
      000000B8H   SFRSYM    DATA     BYTE      IP
      000000F0H.6 SFRSYM    DATA     BIT       B_B6
      000000C5H   SFRSYM    DATA     WORD      ADC0LT
      000000DDH   SFRSYM    DATA     BYTE      PCA0CPM3
      000000FDH   SFRSYM    DATA     BYTE      PCA0CPL4
      00000098H.5 SFRSYM    DATA     BIT       SCON0_MCE
      000000F0H.7 SFRSYM    DATA     BIT       B_B7
      000000DEH   SFRSYM    DATA     BYTE      PCA0CPM4
      000000E1H   SFRSYM    DATA     BYTE      XBR0
      000000C1H   SFRSYM    DATA     BYTE      SMB0CF
      000000E2H   SFRSYM    DATA     BYTE      XBR1
      000000AAH   SFRSYM    DATA     BYTE      EMI0CN
      000000C0H.2 SFRSYM    DATA     BIT       SMB0CN_ARBLOST
      000000E0H.0 SFRSYM    DATA     BIT       ACC_ACC0
      000000D1H   SFRSYM    DATA     BYTE      REF0CN
      000000F8H.1 SFRSYM    DATA     BIT       SPI0CN_TXBMT
      000000E0H.1 SFRSYM    DATA     BIT       ACC_ACC1
LX51 LINKER/LOCATER V4.66.97.0                                                        01/28/2020  21:12:22  PAGE 28


      000000C0H.0 SFRSYM    DATA     BIT       SMB0CN_SI
      000000E0H.2 SFRSYM    DATA     BIT       ACC_ACC2
      000000E0H.3 SFRSYM    DATA     BIT       ACC_ACC3
      00000081H   SFRSYM    DATA     BYTE      SP
      000000E0H.4 SFRSYM    DATA     BIT       ACC_ACC4
      000000E0H.5 SFRSYM    DATA     BIT       ACC_ACC5
      000000C0H   SFRSYM    DATA     BYTE      SMB0CN
      000000E0H.6 SFRSYM    DATA     BIT       ACC_ACC6
      000000CCH   SFRSYM    DATA     WORD      TMR2
      000000E0H.7 SFRSYM    DATA     BIT       ACC_ACC7
      00000094H   SFRSYM    DATA     WORD      TMR3
      000000FFH   SFRSYM    DATA     BYTE      VDM0CN
      000000F1H   SFRSYM    DATA     BYTE      P0MDIN
      0000009DH   SFRSYM    DATA     BYTE      CPT0MD
      0000009BH   SFRSYM    DATA     BYTE      CPT0CN
      00000098H.4 SFRSYM    DATA     BIT       SCON0_REN
      000000F2H   SFRSYM    DATA     BYTE      P1MDIN
      0000009CH   SFRSYM    DATA     BYTE      CPT1MD
      0000009AH   SFRSYM    DATA     BYTE      CPT1CN
      000000F3H   SFRSYM    DATA     BYTE      P2MDIN
      000000F4H   SFRSYM    DATA     BYTE      P3MDIN
      000000C8H.7 SFRSYM    DATA     BIT       TMR2CN_TF2H
      000000C8H.3 SFRSYM    DATA     BIT       TMR2CN_T2SPLIT
      000000F8H   SFRSYM    DATA     BYTE      SPI0CN
      000000D0H.3 SFRSYM    DATA     BIT       PSW_RS0
      00000087H   SFRSYM    DATA     BYTE      PCON
      000000C8H.6 SFRSYM    DATA     BIT       TMR2CN_TF2L
      000000D0H.4 SFRSYM    DATA     BIT       PSW_RS1
      000000E8H.0 SFRSYM    DATA     BIT       ADC0CN_ADCM0
      000000E8H.1 SFRSYM    DATA     BIT       ADC0CN_ADCM1
      000000E8H.2 SFRSYM    DATA     BIT       ADC0CN_ADCM2
      000000E8H.3 SFRSYM    DATA     BIT       ADC0CN_ADWINT
      00000089H   SFRSYM    DATA     BYTE      TMOD
      00000088H   SFRSYM    DATA     BYTE      TCON
      000000E8H.4 SFRSYM    DATA     BIT       ADC0CN_ADBUSY
      000000F8H.5 SFRSYM    DATA     BIT       SPI0CN_MODF
      000000D0H.0 SFRSYM    DATA     BIT       PSW_PARITY
      000000A8H.4 SFRSYM    DATA     BIT       IE_ES0
      000000A8H.1 SFRSYM    DATA     BIT       IE_ET0
      000000C8H   SFRSYM    DATA     BYTE      TMR2CN
      000000A8H.3 SFRSYM    DATA     BIT       IE_ET1
      00000091H   SFRSYM    DATA     BYTE      TMR3CN
      000000D4H   SFRSYM    DATA     BYTE      P0SKIP
      000000A8H.5 SFRSYM    DATA     BIT       IE_ET2
      000000D5H   SFRSYM    DATA     BYTE      P1SKIP
      000000D6H   SFRSYM    DATA     BYTE      P2SKIP
      000000A8H.0 SFRSYM    DATA     BIT       IE_EX0
      000000A8H.2 SFRSYM    DATA     BIT       IE_EX1
      0000009FH   SFRSYM    DATA     BYTE      CPT0MX
      00000098H.7 SFRSYM    DATA     BIT       SCON0_SMODE
      000000B3H   SFRSYM    DATA     BYTE      OSCICL
      0000009EH   SFRSYM    DATA     BYTE      CPT1MX
      000000A9H   SFRSYM    DATA     BYTE      CLKSEL
      000000B2H   SFRSYM    DATA     BYTE      OSCICN
      000000F0H   SFRSYM    DATA     BYTE      B
      000000BEH   SFRSYM    DATA     BYTE      ADC0H
      000000F8H.7 SFRSYM    DATA     BIT       SPI0CN_SPIF
      000000CAH   SFRSYM    DATA     WORD      TMR2RL
      000000BDH   SFRSYM    DATA     BYTE      ADC0L
      000000C8H.5 SFRSYM    DATA     BIT       TMR2CN_TF2LEN
      000000F8H.6 SFRSYM    DATA     BIT       SPI0CN_WCOL
      00000092H   SFRSYM    DATA     WORD      TMR3RL
LX51 LINKER/LOCATER V4.66.97.0                                                        01/28/2020  21:12:22  PAGE 29


      000000F8H.2 SFRSYM    DATA     BIT       SPI0CN_NSSMD0
      000000E0H   SFRSYM    DATA     BYTE      ACC
      000000F8H.3 SFRSYM    DATA     BIT       SPI0CN_NSSMD1
      000000FBH   SFRSYM    DATA     WORD      PCA0CP0
      000000E9H   SFRSYM    DATA     WORD      PCA0CP1
      000000EBH   SFRSYM    DATA     WORD      PCA0CP2
      000000EDH   SFRSYM    DATA     WORD      PCA0CP3
      0000008CH   SFRSYM    DATA     BYTE      TH0
      000000B8H.4 SFRSYM    DATA     BIT       IP_PS0
      000000FDH   SFRSYM    DATA     WORD      PCA0CP4
      0000008DH   SFRSYM    DATA     BYTE      TH1
      000000FAH   SFRSYM    DATA     BYTE      PCA0H
      000000B8H.1 SFRSYM    DATA     BIT       IP_PT0
      000000B8H.3 SFRSYM    DATA     BIT       IP_PT1
      000000B8H.5 SFRSYM    DATA     BIT       IP_PT2
      0000008AH   SFRSYM    DATA     BYTE      TL0
      000000B1H   SFRSYM    DATA     BYTE      OSCXCN
      000000D0H.5 SFRSYM    DATA     BIT       PSW_F0
      000000A8H.6 SFRSYM    DATA     BIT       IE_ESPI0
      0000008BH   SFRSYM    DATA     BYTE      TL1
      000000F9H   SFRSYM    DATA     BYTE      PCA0L
      000000D0H.1 SFRSYM    DATA     BIT       PSW_F1
      00000080H.0 SFRSYM    DATA     BIT       P0_B0
      000000B8H.0 SFRSYM    DATA     BIT       IP_PX0
      000000C8H.0 SFRSYM    DATA     BIT       TMR2CN_T2XCLK
      00000090H.0 SFRSYM    DATA     BIT       P1_B0
      00000080H.1 SFRSYM    DATA     BIT       P0_B1
      000000B8H.2 SFRSYM    DATA     BIT       IP_PX1
      00000088H.1 SFRSYM    DATA     BIT       TCON_IE0
      000000C0H.7 SFRSYM    DATA     BIT       SMB0CN_MASTER
      000000A0H.0 SFRSYM    DATA     BIT       P2_B0
      00000090H.1 SFRSYM    DATA     BIT       P1_B1
      00000080H.2 SFRSYM    DATA     BIT       P0_B2
      00000088H.3 SFRSYM    DATA     BIT       TCON_IE1
      000000C0H.1 SFRSYM    DATA     BIT       SMB0CN_ACK
      000000B0H.0 SFRSYM    DATA     BIT       P3_B0
      000000A0H.1 SFRSYM    DATA     BIT       P2_B1
      00000090H.2 SFRSYM    DATA     BIT       P1_B2
      00000080H.3 SFRSYM    DATA     BIT       P0_B3
      000000B0H.1 SFRSYM    DATA     BIT       P3_B1
      000000A0H.2 SFRSYM    DATA     BIT       P2_B2
      00000090H.3 SFRSYM    DATA     BIT       P1_B3
      00000080H.4 SFRSYM    DATA     BIT       P0_B4
      000000B0H.2 SFRSYM    DATA     BIT       P3_B2
      000000A0H.3 SFRSYM    DATA     BIT       P2_B3
      00000090H.4 SFRSYM    DATA     BIT       P1_B4
      00000080H.5 SFRSYM    DATA     BIT       P0_B5
      000000B0H.3 SFRSYM    DATA     BIT       P3_B3
      000000A0H.4 SFRSYM    DATA     BIT       P2_B4
      00000090H.5 SFRSYM    DATA     BIT       P1_B5
      00000080H.6 SFRSYM    DATA     BIT       P0_B6
      000000C0H.6 SFRSYM    DATA     BIT       SMB0CN_TXMODE
      000000B0H.4 SFRSYM    DATA     BIT       P3_B4
      000000A0H.5 SFRSYM    DATA     BIT       P2_B5
      00000090H.6 SFRSYM    DATA     BIT       P1_B6
      00000080H.7 SFRSYM    DATA     BIT       P0_B7
      000000A0H.6 SFRSYM    DATA     BIT       P2_B6
      00000090H.7 SFRSYM    DATA     BIT       P1_B7
      000000A0H.7 SFRSYM    DATA     BIT       P2_B7
      00000083H   SFRSYM    DATA     BYTE      DPH
      000000E8H.5 SFRSYM    DATA     BIT       ADC0CN_ADINT
      000000C4H   SFRSYM    DATA     BYTE      ADC0GTH
LX51 LINKER/LOCATER V4.66.97.0                                                        01/28/2020  21:12:22  PAGE 30


      000000D0H.6 SFRSYM    DATA     BIT       PSW_AC
      00000088H.5 SFRSYM    DATA     BIT       TCON_TF0
      00000098H.0 SFRSYM    DATA     BIT       SCON0_RI
      00000082H   SFRSYM    DATA     BYTE      DPL
      00000088H.7 SFRSYM    DATA     BIT       TCON_TF1
      00000099H   SFRSYM    DATA     BYTE      SBUF0
      000000C3H   SFRSYM    DATA     BYTE      ADC0GTL
      00000098H.1 SFRSYM    DATA     BIT       SCON0_TI
      000000C6H   SFRSYM    DATA     BYTE      ADC0LTH
      00000088H.0 SFRSYM    DATA     BIT       TCON_IT0
      000000EFH   SFRSYM    DATA     BYTE      RSTSRC
      00000088H.2 SFRSYM    DATA     BIT       TCON_IT1
      00000098H   SFRSYM    DATA     BYTE      SCON0
      000000BAH   SFRSYM    DATA     BYTE      AMX0N
      000000C5H   SFRSYM    DATA     BYTE      ADC0LTL
      000000B8H.6 SFRSYM    DATA     BIT       IP_PSPI0
      000000BBH   SFRSYM    DATA     BYTE      AMX0P
      00000088H.4 SFRSYM    DATA     BIT       TCON_TR0
      00000088H.6 SFRSYM    DATA     BIT       TCON_TR1
      000000C2H   SFRSYM    DATA     BYTE      SMB0DAT
      000000C0H.5 SFRSYM    DATA     BIT       SMB0CN_STA
      000000CDH   SFRSYM    DATA     BYTE      TMR2H
      000000A1H   SFRSYM    DATA     BYTE      SPI0CFG
      00000095H   SFRSYM    DATA     BYTE      TMR3H
      0000008EH   SFRSYM    DATA     BYTE      CKCON
      000000C8H.2 SFRSYM    DATA     BIT       TMR2CN_TR2
      000000CCH   SFRSYM    DATA     BYTE      TMR2L
      00000094H   SFRSYM    DATA     BYTE      TMR3L
      000000D8H.0 SFRSYM    DATA     BIT       PCA0CN_CCF0
      000000A8H.7 SFRSYM    DATA     BIT       IE_EA
      000000D8H.1 SFRSYM    DATA     BIT       PCA0CN_CCF1
      000000B6H   SFRSYM    DATA     BYTE      FLSCL
      000000D8H.2 SFRSYM    DATA     BIT       PCA0CN_CCF2
      000000D0H.7 SFRSYM    DATA     BIT       PSW_CY
      000000D8H.3 SFRSYM    DATA     BIT       PCA0CN_CCF3
      000000A3H   SFRSYM    DATA     BYTE      SPI0DAT
      000000D8H.4 SFRSYM    DATA     BIT       PCA0CN_CCF4
      000000BDH   SFRSYM    DATA     WORD      ADC0
      000000C0H.3 SFRSYM    DATA     BIT       SMB0CN_ACKRQ
      000000D0H   SFRSYM    DATA     BYTE      PSW
      000000C0H.4 SFRSYM    DATA     BIT       SMB0CN_STO
      000000B7H   SFRSYM    DATA     BYTE      FLKEY

      01001414H   BLOCK     CODE     ---       LVL=0
      01001414H   BLOCK     CODE     NEAR LAB  LVL=1
      0000000BH   SYMBOL    DATA     DWORD     count
      ---         BLOCKEND  ---      ---       LVL=1
      01001414H   LINE      CODE     ---       #16
      01001414H   LINE      CODE     ---       #17
      01001414H   LINE      CODE     ---       #19
      0100142DH   LINE      CODE     ---       #20
      01001440H   LINE      CODE     ---       #21
      01001458H   LINE      CODE     ---       #22
      0100145BH   LINE      CODE     ---       #23
      ---         BLOCKEND  ---      ---       LVL=0

      01000026H   BLOCK     CODE     ---       LVL=0
      01000026H   LINE      CODE     ---       #25
      01000026H   LINE      CODE     ---       #26
      01000026H   LINE      CODE     ---       #30
      01000029H   LINE      CODE     ---       #32
      0100002CH   LINE      CODE     ---       #34
LX51 LINKER/LOCATER V4.66.97.0                                                        01/28/2020  21:12:22  PAGE 31


      01000031H   LINE      CODE     ---       #35
      ---         BLOCKEND  ---      ---       LVL=0

      010014E7H   BLOCK     CODE     ---       LVL=0
      010014E7H   LINE      CODE     ---       #37
      010014F0H   LINE      CODE     ---       #39
      010014F5H   LINE      CODE     ---       #40
      010014F5H   LINE      CODE     ---       #41
      010014F8H   LINE      CODE     ---       #43
      010014FEH   LINE      CODE     ---       #44
      010014FEH   LINE      CODE     ---       #45
      01001503H   LINE      CODE     ---       #47
      01001503H   LINE      CODE     ---       #49
      0100150BH   LINE      CODE     ---       #50
      0100150DH   LINE      CODE     ---       #51
      0100150DH   LINE      CODE     ---       #53
      01001510H   LINE      CODE     ---       #54
      ---         BLOCKEND  ---      ---       LVL=0

      010015B6H   BLOCK     CODE     ---       LVL=0
      010015B6H   LINE      CODE     ---       #56
      010015B6H   LINE      CODE     ---       #57
      010015B6H   LINE      CODE     ---       #58
      010015B9H   LINE      CODE     ---       #59
      010015BBH   LINE      CODE     ---       #60
      010015BEH   LINE      CODE     ---       #68
      ---         BLOCKEND  ---      ---       LVL=0

      ---         MODULE    ---      ---       SYS
      0000005EH   PUBLIC    DATA     DWORD     Sys_Clk
      01001552H   PUBLIC    CODE     ---       Init_Device
      010015C8H   PUBLIC    CODE     ---       Interrupts_Init
      010015D8H   PUBLIC    CODE     ---       Oscillator_Init
      0100156EH   PUBLIC    CODE     ---       Port_IO_Init
      000000A2H   SFRSYM    DATA     BYTE      SPI0CKR
      00000080H   SFRSYM    DATA     BYTE      P0
      000000D0H.2 SFRSYM    DATA     BIT       PSW_OV
      000000D8H.7 SFRSYM    DATA     BIT       PCA0CN_CF
      00000090H   SFRSYM    DATA     BYTE      P1
      000000F8H.4 SFRSYM    DATA     BIT       SPI0CN_RXOVRN
      000000A0H   SFRSYM    DATA     BYTE      P2
      000000B0H   SFRSYM    DATA     BYTE      P3
      000000BCH   SFRSYM    DATA     BYTE      ADC0CF
      000000E8H.7 SFRSYM    DATA     BIT       ADC0CN_ADEN
      000000F9H   SFRSYM    DATA     WORD      PCA0
      000000E6H   SFRSYM    DATA     BYTE      EIE1
      0000008FH   SFRSYM    DATA     BYTE      PSCTL
      000000E4H   SFRSYM    DATA     BYTE      IT01CF
      000000E8H   SFRSYM    DATA     BYTE      ADC0CN
      000000A4H   SFRSYM    DATA     BYTE      P0MDOUT
      000000D8H.6 SFRSYM    DATA     BIT       PCA0CN_CR
      000000A5H   SFRSYM    DATA     BYTE      P1MDOUT
      000000CBH   SFRSYM    DATA     BYTE      TMR2RLH
      000000A6H   SFRSYM    DATA     BYTE      P2MDOUT
      000000A8H   SFRSYM    DATA     BYTE      IE
      00000093H   SFRSYM    DATA     BYTE      TMR3RLH
      000000A7H   SFRSYM    DATA     BYTE      P3MDOUT
      000000F6H   SFRSYM    DATA     BYTE      EIP1
      000000F8H.0 SFRSYM    DATA     BIT       SPI0CN_SPIEN
      00000098H.2 SFRSYM    DATA     BIT       SCON0_RB8
      000000CAH   SFRSYM    DATA     BYTE      TMR2RLL
      000000FCH   SFRSYM    DATA     BYTE      PCA0CPH0
LX51 LINKER/LOCATER V4.66.97.0                                                        01/28/2020  21:12:22  PAGE 32


      000000E8H.6 SFRSYM    DATA     BIT       ADC0CN_ADTM
      00000092H   SFRSYM    DATA     BYTE      TMR3RLL
      000000EAH   SFRSYM    DATA     BYTE      PCA0CPH1
      00000098H.3 SFRSYM    DATA     BIT       SCON0_TB8
      000000F0H.0 SFRSYM    DATA     BIT       B_B0
      00000082H   SFRSYM    DATA     WORD      DP
      000000ECH   SFRSYM    DATA     BYTE      PCA0CPH2
      000000F0H.1 SFRSYM    DATA     BIT       B_B1
      000000C3H   SFRSYM    DATA     WORD      ADC0GT
      000000EEH   SFRSYM    DATA     BYTE      PCA0CPH3
      000000F0H.2 SFRSYM    DATA     BIT       B_B2
      000000FBH   SFRSYM    DATA     BYTE      PCA0CPL0
      000000FEH   SFRSYM    DATA     BYTE      PCA0CPH4
      000000F0H.3 SFRSYM    DATA     BIT       B_B3
      000000D9H   SFRSYM    DATA     BYTE      PCA0MD
      000000DAH   SFRSYM    DATA     BYTE      PCA0CPM0
      000000E9H   SFRSYM    DATA     BYTE      PCA0CPL1
      000000D8H   SFRSYM    DATA     BYTE      PCA0CN
      000000F0H.4 SFRSYM    DATA     BIT       B_B4
      000000DBH   SFRSYM    DATA     BYTE      PCA0CPM1
      000000EBH   SFRSYM    DATA     BYTE      PCA0CPL2
      000000F0H.5 SFRSYM    DATA     BIT       B_B5
      000000DCH   SFRSYM    DATA     BYTE      PCA0CPM2
      000000EDH   SFRSYM    DATA     BYTE      PCA0CPL3
      000000B8H   SFRSYM    DATA     BYTE      IP
      000000F0H.6 SFRSYM    DATA     BIT       B_B6
      000000C5H   SFRSYM    DATA     WORD      ADC0LT
      000000DDH   SFRSYM    DATA     BYTE      PCA0CPM3
      000000FDH   SFRSYM    DATA     BYTE      PCA0CPL4
      00000098H.5 SFRSYM    DATA     BIT       SCON0_MCE
      000000F0H.7 SFRSYM    DATA     BIT       B_B7
      000000DEH   SFRSYM    DATA     BYTE      PCA0CPM4
      000000E1H   SFRSYM    DATA     BYTE      XBR0
      000000C1H   SFRSYM    DATA     BYTE      SMB0CF
      000000E2H   SFRSYM    DATA     BYTE      XBR1
      000000AAH   SFRSYM    DATA     BYTE      EMI0CN
      000000C0H.2 SFRSYM    DATA     BIT       SMB0CN_ARBLOST
      000000E0H.0 SFRSYM    DATA     BIT       ACC_ACC0
      000000D1H   SFRSYM    DATA     BYTE      REF0CN
      000000F8H.1 SFRSYM    DATA     BIT       SPI0CN_TXBMT
      000000E0H.1 SFRSYM    DATA     BIT       ACC_ACC1
      000000C0H.0 SFRSYM    DATA     BIT       SMB0CN_SI
      000000E0H.2 SFRSYM    DATA     BIT       ACC_ACC2
      000000E0H.3 SFRSYM    DATA     BIT       ACC_ACC3
      00000081H   SFRSYM    DATA     BYTE      SP
      000000E0H.4 SFRSYM    DATA     BIT       ACC_ACC4
      000000E0H.5 SFRSYM    DATA     BIT       ACC_ACC5
      000000C0H   SFRSYM    DATA     BYTE      SMB0CN
      000000E0H.6 SFRSYM    DATA     BIT       ACC_ACC6
      000000CCH   SFRSYM    DATA     WORD      TMR2
      000000E0H.7 SFRSYM    DATA     BIT       ACC_ACC7
      00000094H   SFRSYM    DATA     WORD      TMR3
      000000FFH   SFRSYM    DATA     BYTE      VDM0CN
      000000F1H   SFRSYM    DATA     BYTE      P0MDIN
      0000009DH   SFRSYM    DATA     BYTE      CPT0MD
      0000009BH   SFRSYM    DATA     BYTE      CPT0CN
      00000098H.4 SFRSYM    DATA     BIT       SCON0_REN
      000000F2H   SFRSYM    DATA     BYTE      P1MDIN
      0000009CH   SFRSYM    DATA     BYTE      CPT1MD
      0000009AH   SFRSYM    DATA     BYTE      CPT1CN
      000000F3H   SFRSYM    DATA     BYTE      P2MDIN
      000000F4H   SFRSYM    DATA     BYTE      P3MDIN
LX51 LINKER/LOCATER V4.66.97.0                                                        01/28/2020  21:12:22  PAGE 33


      000000C8H.7 SFRSYM    DATA     BIT       TMR2CN_TF2H
      000000C8H.3 SFRSYM    DATA     BIT       TMR2CN_T2SPLIT
      000000F8H   SFRSYM    DATA     BYTE      SPI0CN
      000000D0H.3 SFRSYM    DATA     BIT       PSW_RS0
      00000087H   SFRSYM    DATA     BYTE      PCON
      000000C8H.6 SFRSYM    DATA     BIT       TMR2CN_TF2L
      000000D0H.4 SFRSYM    DATA     BIT       PSW_RS1
      000000E8H.0 SFRSYM    DATA     BIT       ADC0CN_ADCM0
      000000E8H.1 SFRSYM    DATA     BIT       ADC0CN_ADCM1
      000000E8H.2 SFRSYM    DATA     BIT       ADC0CN_ADCM2
      000000E8H.3 SFRSYM    DATA     BIT       ADC0CN_ADWINT
      00000089H   SFRSYM    DATA     BYTE      TMOD
      00000088H   SFRSYM    DATA     BYTE      TCON
      000000E8H.4 SFRSYM    DATA     BIT       ADC0CN_ADBUSY
      000000F8H.5 SFRSYM    DATA     BIT       SPI0CN_MODF
      000000D0H.0 SFRSYM    DATA     BIT       PSW_PARITY
      000000A8H.4 SFRSYM    DATA     BIT       IE_ES0
      000000A8H.1 SFRSYM    DATA     BIT       IE_ET0
      000000C8H   SFRSYM    DATA     BYTE      TMR2CN
      000000A8H.3 SFRSYM    DATA     BIT       IE_ET1
      00000091H   SFRSYM    DATA     BYTE      TMR3CN
      000000D4H   SFRSYM    DATA     BYTE      P0SKIP
      000000A8H.5 SFRSYM    DATA     BIT       IE_ET2
      000000D5H   SFRSYM    DATA     BYTE      P1SKIP
      000000D6H   SFRSYM    DATA     BYTE      P2SKIP
      000000A8H.0 SFRSYM    DATA     BIT       IE_EX0
      000000A8H.2 SFRSYM    DATA     BIT       IE_EX1
      0000009FH   SFRSYM    DATA     BYTE      CPT0MX
      00000098H.7 SFRSYM    DATA     BIT       SCON0_SMODE
      000000B3H   SFRSYM    DATA     BYTE      OSCICL
      0000009EH   SFRSYM    DATA     BYTE      CPT1MX
      000000A9H   SFRSYM    DATA     BYTE      CLKSEL
      000000B2H   SFRSYM    DATA     BYTE      OSCICN
      000000F0H   SFRSYM    DATA     BYTE      B
      000000BEH   SFRSYM    DATA     BYTE      ADC0H
      000000F8H.7 SFRSYM    DATA     BIT       SPI0CN_SPIF
      000000CAH   SFRSYM    DATA     WORD      TMR2RL
      000000BDH   SFRSYM    DATA     BYTE      ADC0L
      000000C8H.5 SFRSYM    DATA     BIT       TMR2CN_TF2LEN
      000000F8H.6 SFRSYM    DATA     BIT       SPI0CN_WCOL
      00000092H   SFRSYM    DATA     WORD      TMR3RL
      000000F8H.2 SFRSYM    DATA     BIT       SPI0CN_NSSMD0
      000000E0H   SFRSYM    DATA     BYTE      ACC
      000000F8H.3 SFRSYM    DATA     BIT       SPI0CN_NSSMD1
      000000FBH   SFRSYM    DATA     WORD      PCA0CP0
      000000E9H   SFRSYM    DATA     WORD      PCA0CP1
      000000EBH   SFRSYM    DATA     WORD      PCA0CP2
      000000EDH   SFRSYM    DATA     WORD      PCA0CP3
      0000008CH   SFRSYM    DATA     BYTE      TH0
      000000B8H.4 SFRSYM    DATA     BIT       IP_PS0
      000000FDH   SFRSYM    DATA     WORD      PCA0CP4
      0000008DH   SFRSYM    DATA     BYTE      TH1
      000000FAH   SFRSYM    DATA     BYTE      PCA0H
      000000B8H.1 SFRSYM    DATA     BIT       IP_PT0
      000000B8H.3 SFRSYM    DATA     BIT       IP_PT1
      000000B8H.5 SFRSYM    DATA     BIT       IP_PT2
      0000008AH   SFRSYM    DATA     BYTE      TL0
      000000B1H   SFRSYM    DATA     BYTE      OSCXCN
      000000D0H.5 SFRSYM    DATA     BIT       PSW_F0
      000000A8H.6 SFRSYM    DATA     BIT       IE_ESPI0
      0000008BH   SFRSYM    DATA     BYTE      TL1
      000000F9H   SFRSYM    DATA     BYTE      PCA0L
LX51 LINKER/LOCATER V4.66.97.0                                                        01/28/2020  21:12:22  PAGE 34


      000000D0H.1 SFRSYM    DATA     BIT       PSW_F1
      00000080H.0 SFRSYM    DATA     BIT       P0_B0
      000000B8H.0 SFRSYM    DATA     BIT       IP_PX0
      000000C8H.0 SFRSYM    DATA     BIT       TMR2CN_T2XCLK
      00000090H.0 SFRSYM    DATA     BIT       P1_B0
      00000080H.1 SFRSYM    DATA     BIT       P0_B1
      000000B8H.2 SFRSYM    DATA     BIT       IP_PX1
      00000088H.1 SFRSYM    DATA     BIT       TCON_IE0
      000000C0H.7 SFRSYM    DATA     BIT       SMB0CN_MASTER
      000000A0H.0 SFRSYM    DATA     BIT       P2_B0
      00000090H.1 SFRSYM    DATA     BIT       P1_B1
      00000080H.2 SFRSYM    DATA     BIT       P0_B2
      00000088H.3 SFRSYM    DATA     BIT       TCON_IE1
      000000C0H.1 SFRSYM    DATA     BIT       SMB0CN_ACK
      000000B0H.0 SFRSYM    DATA     BIT       P3_B0
      000000A0H.1 SFRSYM    DATA     BIT       P2_B1
      00000090H.2 SFRSYM    DATA     BIT       P1_B2
      00000080H.3 SFRSYM    DATA     BIT       P0_B3
      000000B0H.1 SFRSYM    DATA     BIT       P3_B1
      000000A0H.2 SFRSYM    DATA     BIT       P2_B2
      00000090H.3 SFRSYM    DATA     BIT       P1_B3
      00000080H.4 SFRSYM    DATA     BIT       P0_B4
      000000B0H.2 SFRSYM    DATA     BIT       P3_B2
      000000A0H.3 SFRSYM    DATA     BIT       P2_B3
      00000090H.4 SFRSYM    DATA     BIT       P1_B4
      00000080H.5 SFRSYM    DATA     BIT       P0_B5
      000000B0H.3 SFRSYM    DATA     BIT       P3_B3
      000000A0H.4 SFRSYM    DATA     BIT       P2_B4
      00000090H.5 SFRSYM    DATA     BIT       P1_B5
      00000080H.6 SFRSYM    DATA     BIT       P0_B6
      000000C0H.6 SFRSYM    DATA     BIT       SMB0CN_TXMODE
      000000B0H.4 SFRSYM    DATA     BIT       P3_B4
      000000A0H.5 SFRSYM    DATA     BIT       P2_B5
      00000090H.6 SFRSYM    DATA     BIT       P1_B6
      00000080H.7 SFRSYM    DATA     BIT       P0_B7
      000000A0H.6 SFRSYM    DATA     BIT       P2_B6
      00000090H.7 SFRSYM    DATA     BIT       P1_B7
      000000A0H.7 SFRSYM    DATA     BIT       P2_B7
      00000083H   SFRSYM    DATA     BYTE      DPH
      000000E8H.5 SFRSYM    DATA     BIT       ADC0CN_ADINT
      000000C4H   SFRSYM    DATA     BYTE      ADC0GTH
      000000D0H.6 SFRSYM    DATA     BIT       PSW_AC
      00000088H.5 SFRSYM    DATA     BIT       TCON_TF0
      00000098H.0 SFRSYM    DATA     BIT       SCON0_RI
      00000082H   SFRSYM    DATA     BYTE      DPL
      00000088H.7 SFRSYM    DATA     BIT       TCON_TF1
      00000099H   SFRSYM    DATA     BYTE      SBUF0
      000000C3H   SFRSYM    DATA     BYTE      ADC0GTL
      00000098H.1 SFRSYM    DATA     BIT       SCON0_TI
      000000C6H   SFRSYM    DATA     BYTE      ADC0LTH
      00000088H.0 SFRSYM    DATA     BIT       TCON_IT0
      000000EFH   SFRSYM    DATA     BYTE      RSTSRC
      00000088H.2 SFRSYM    DATA     BIT       TCON_IT1
      00000098H   SFRSYM    DATA     BYTE      SCON0
      000000BAH   SFRSYM    DATA     BYTE      AMX0N
      000000C5H   SFRSYM    DATA     BYTE      ADC0LTL
      000000B8H.6 SFRSYM    DATA     BIT       IP_PSPI0
      000000BBH   SFRSYM    DATA     BYTE      AMX0P
      00000088H.4 SFRSYM    DATA     BIT       TCON_TR0
      00000088H.6 SFRSYM    DATA     BIT       TCON_TR1
      000000C2H   SFRSYM    DATA     BYTE      SMB0DAT
      000000C0H.5 SFRSYM    DATA     BIT       SMB0CN_STA
LX51 LINKER/LOCATER V4.66.97.0                                                        01/28/2020  21:12:22  PAGE 35


      000000CDH   SFRSYM    DATA     BYTE      TMR2H
      000000A1H   SFRSYM    DATA     BYTE      SPI0CFG
      00000095H   SFRSYM    DATA     BYTE      TMR3H
      0000008EH   SFRSYM    DATA     BYTE      CKCON
      000000C8H.2 SFRSYM    DATA     BIT       TMR2CN_TR2
      000000CCH   SFRSYM    DATA     BYTE      TMR2L
      00000094H   SFRSYM    DATA     BYTE      TMR3L
      000000D8H.0 SFRSYM    DATA     BIT       PCA0CN_CCF0
      000000A8H.7 SFRSYM    DATA     BIT       IE_EA
      000000D8H.1 SFRSYM    DATA     BIT       PCA0CN_CCF1
      000000B6H   SFRSYM    DATA     BYTE      FLSCL
      000000D8H.2 SFRSYM    DATA     BIT       PCA0CN_CCF2
      000000D0H.7 SFRSYM    DATA     BIT       PSW_CY
      000000D8H.3 SFRSYM    DATA     BIT       PCA0CN_CCF3
      000000A3H   SFRSYM    DATA     BYTE      SPI0DAT
      000000D8H.4 SFRSYM    DATA     BIT       PCA0CN_CCF4
      000000BDH   SFRSYM    DATA     WORD      ADC0
      000000C0H.3 SFRSYM    DATA     BIT       SMB0CN_ACKRQ
      000000D0H   SFRSYM    DATA     BYTE      PSW
      000000C0H.4 SFRSYM    DATA     BIT       SMB0CN_STO
      000000B7H   SFRSYM    DATA     BYTE      FLKEY

      0100156EH   BLOCK     CODE     ---       LVL=0
      0100156EH   LINE      CODE     ---       #16
      0100156EH   LINE      CODE     ---       #17
      0100156EH   LINE      CODE     ---       #40
      01001571H   LINE      CODE     ---       #41
      01001574H   LINE      CODE     ---       #42
      01001577H   LINE      CODE     ---       #43
      0100157AH   LINE      CODE     ---       #44
      0100157DH   LINE      CODE     ---       #45
      01001580H   LINE      CODE     ---       #46
      01001583H   LINE      CODE     ---       #47
      ---         BLOCKEND  ---      ---       LVL=0

      010015D8H   BLOCK     CODE     ---       LVL=0
      010015D8H   LINE      CODE     ---       #49
      010015D8H   LINE      CODE     ---       #50
      010015D8H   LINE      CODE     ---       #52
      010015DBH   LINE      CODE     ---       #53
      ---         BLOCKEND  ---      ---       LVL=0

      010015C8H   BLOCK     CODE     ---       LVL=0
      010015C8H   LINE      CODE     ---       #55
      010015C8H   LINE      CODE     ---       #56
      010015C8H   LINE      CODE     ---       #57
      010015CBH   LINE      CODE     ---       #58
      010015CEH   LINE      CODE     ---       #61
      ---         BLOCKEND  ---      ---       LVL=0

      01001552H   BLOCK     CODE     ---       LVL=0
      01001552H   LINE      CODE     ---       #63
      01001552H   LINE      CODE     ---       #64
      01001552H   LINE      CODE     ---       #65
      01001555H   LINE      CODE     ---       #67
      01001558H   LINE      CODE     ---       #68
      0100155BH   LINE      CODE     ---       #69
      0100155EH   LINE      CODE     ---       #70
      01001561H   LINE      CODE     ---       #71
      01001564H   LINE      CODE     ---       #72
      01001567H   LINE      CODE     ---       #74
      0100156AH   LINE      CODE     ---       #76
LX51 LINKER/LOCATER V4.66.97.0                                                        01/28/2020  21:12:22  PAGE 36


      0100156DH   LINE      CODE     ---       #77
      ---         BLOCKEND  ---      ---       LVL=0

      ---         MODULE    ---      ---       TIMER
      010015A7H   PUBLIC    CODE     ---       Timer_Init
      01001265H   PUBLIC    CODE     ---       Timer_GetUartCounter
      000000A2H   SFRSYM    DATA     BYTE      SPI0CKR
      00000080H   SFRSYM    DATA     BYTE      P0
      000000D0H.2 SFRSYM    DATA     BIT       PSW_OV
      000000D8H.7 SFRSYM    DATA     BIT       PCA0CN_CF
      00000090H   SFRSYM    DATA     BYTE      P1
      000000F8H.4 SFRSYM    DATA     BIT       SPI0CN_RXOVRN
      000000A0H   SFRSYM    DATA     BYTE      P2
      000000B0H   SFRSYM    DATA     BYTE      P3
      000000BCH   SFRSYM    DATA     BYTE      ADC0CF
      000000E8H.7 SFRSYM    DATA     BIT       ADC0CN_ADEN
      000000F9H   SFRSYM    DATA     WORD      PCA0
      000000E6H   SFRSYM    DATA     BYTE      EIE1
      0000008FH   SFRSYM    DATA     BYTE      PSCTL
      000000E4H   SFRSYM    DATA     BYTE      IT01CF
      000000E8H   SFRSYM    DATA     BYTE      ADC0CN
      000000A4H   SFRSYM    DATA     BYTE      P0MDOUT
      000000D8H.6 SFRSYM    DATA     BIT       PCA0CN_CR
      000000A5H   SFRSYM    DATA     BYTE      P1MDOUT
      000000CBH   SFRSYM    DATA     BYTE      TMR2RLH
      000000A6H   SFRSYM    DATA     BYTE      P2MDOUT
      000000A8H   SFRSYM    DATA     BYTE      IE
      00000093H   SFRSYM    DATA     BYTE      TMR3RLH
      000000A7H   SFRSYM    DATA     BYTE      P3MDOUT
      000000F6H   SFRSYM    DATA     BYTE      EIP1
      000000F8H.0 SFRSYM    DATA     BIT       SPI0CN_SPIEN
      00000098H.2 SFRSYM    DATA     BIT       SCON0_RB8
      000000CAH   SFRSYM    DATA     BYTE      TMR2RLL
      000000FCH   SFRSYM    DATA     BYTE      PCA0CPH0
      000000E8H.6 SFRSYM    DATA     BIT       ADC0CN_ADTM
      00000092H   SFRSYM    DATA     BYTE      TMR3RLL
      000000EAH   SFRSYM    DATA     BYTE      PCA0CPH1
      00000098H.3 SFRSYM    DATA     BIT       SCON0_TB8
      000000F0H.0 SFRSYM    DATA     BIT       B_B0
      00000082H   SFRSYM    DATA     WORD      DP
      000000ECH   SFRSYM    DATA     BYTE      PCA0CPH2
      000000F0H.1 SFRSYM    DATA     BIT       B_B1
      000000C3H   SFRSYM    DATA     WORD      ADC0GT
      000000EEH   SFRSYM    DATA     BYTE      PCA0CPH3
      000000F0H.2 SFRSYM    DATA     BIT       B_B2
      000000FBH   SFRSYM    DATA     BYTE      PCA0CPL0
      000000FEH   SFRSYM    DATA     BYTE      PCA0CPH4
      000000F0H.3 SFRSYM    DATA     BIT       B_B3
      000000D9H   SFRSYM    DATA     BYTE      PCA0MD
      000000DAH   SFRSYM    DATA     BYTE      PCA0CPM0
      000000E9H   SFRSYM    DATA     BYTE      PCA0CPL1
      000000D8H   SFRSYM    DATA     BYTE      PCA0CN
      000000F0H.4 SFRSYM    DATA     BIT       B_B4
      000000DBH   SFRSYM    DATA     BYTE      PCA0CPM1
      000000EBH   SFRSYM    DATA     BYTE      PCA0CPL2
      000000F0H.5 SFRSYM    DATA     BIT       B_B5
      000000DCH   SFRSYM    DATA     BYTE      PCA0CPM2
      000000EDH   SFRSYM    DATA     BYTE      PCA0CPL3
      000000B8H   SFRSYM    DATA     BYTE      IP
      000000F0H.6 SFRSYM    DATA     BIT       B_B6
      000000C5H   SFRSYM    DATA     WORD      ADC0LT
      000000DDH   SFRSYM    DATA     BYTE      PCA0CPM3
LX51 LINKER/LOCATER V4.66.97.0                                                        01/28/2020  21:12:22  PAGE 37


      000000FDH   SFRSYM    DATA     BYTE      PCA0CPL4
      00000098H.5 SFRSYM    DATA     BIT       SCON0_MCE
      000000F0H.7 SFRSYM    DATA     BIT       B_B7
      000000DEH   SFRSYM    DATA     BYTE      PCA0CPM4
      000000E1H   SFRSYM    DATA     BYTE      XBR0
      000000C1H   SFRSYM    DATA     BYTE      SMB0CF
      000000E2H   SFRSYM    DATA     BYTE      XBR1
      000000AAH   SFRSYM    DATA     BYTE      EMI0CN
      000000C0H.2 SFRSYM    DATA     BIT       SMB0CN_ARBLOST
      000000E0H.0 SFRSYM    DATA     BIT       ACC_ACC0
      000000D1H   SFRSYM    DATA     BYTE      REF0CN
      000000F8H.1 SFRSYM    DATA     BIT       SPI0CN_TXBMT
      000000E0H.1 SFRSYM    DATA     BIT       ACC_ACC1
      000000C0H.0 SFRSYM    DATA     BIT       SMB0CN_SI
      000000E0H.2 SFRSYM    DATA     BIT       ACC_ACC2
      000000E0H.3 SFRSYM    DATA     BIT       ACC_ACC3
      00000081H   SFRSYM    DATA     BYTE      SP
      000000E0H.4 SFRSYM    DATA     BIT       ACC_ACC4
      000000E0H.5 SFRSYM    DATA     BIT       ACC_ACC5
      000000C0H   SFRSYM    DATA     BYTE      SMB0CN
      000000E0H.6 SFRSYM    DATA     BIT       ACC_ACC6
      000000CCH   SFRSYM    DATA     WORD      TMR2
      000000E0H.7 SFRSYM    DATA     BIT       ACC_ACC7
      00000094H   SFRSYM    DATA     WORD      TMR3
      000000FFH   SFRSYM    DATA     BYTE      VDM0CN
      000000F1H   SFRSYM    DATA     BYTE      P0MDIN
      0000009DH   SFRSYM    DATA     BYTE      CPT0MD
      0000009BH   SFRSYM    DATA     BYTE      CPT0CN
      00000098H.4 SFRSYM    DATA     BIT       SCON0_REN
      000000F2H   SFRSYM    DATA     BYTE      P1MDIN
      0000009CH   SFRSYM    DATA     BYTE      CPT1MD
      0000009AH   SFRSYM    DATA     BYTE      CPT1CN
      000000F3H   SFRSYM    DATA     BYTE      P2MDIN
      000000F4H   SFRSYM    DATA     BYTE      P3MDIN
      000000C8H.7 SFRSYM    DATA     BIT       TMR2CN_TF2H
      000000C8H.3 SFRSYM    DATA     BIT       TMR2CN_T2SPLIT
      000000F8H   SFRSYM    DATA     BYTE      SPI0CN
      000000D0H.3 SFRSYM    DATA     BIT       PSW_RS0
      00000087H   SFRSYM    DATA     BYTE      PCON
      000000C8H.6 SFRSYM    DATA     BIT       TMR2CN_TF2L
      000000D0H.4 SFRSYM    DATA     BIT       PSW_RS1
      000000E8H.0 SFRSYM    DATA     BIT       ADC0CN_ADCM0
      000000E8H.1 SFRSYM    DATA     BIT       ADC0CN_ADCM1
      000000E8H.2 SFRSYM    DATA     BIT       ADC0CN_ADCM2
      000000E8H.3 SFRSYM    DATA     BIT       ADC0CN_ADWINT
      00000089H   SFRSYM    DATA     BYTE      TMOD
      00000088H   SFRSYM    DATA     BYTE      TCON
      000000E8H.4 SFRSYM    DATA     BIT       ADC0CN_ADBUSY
      000000F8H.5 SFRSYM    DATA     BIT       SPI0CN_MODF
      000000D0H.0 SFRSYM    DATA     BIT       PSW_PARITY
      000000A8H.4 SFRSYM    DATA     BIT       IE_ES0
      000000A8H.1 SFRSYM    DATA     BIT       IE_ET0
      000000C8H   SFRSYM    DATA     BYTE      TMR2CN
      000000A8H.3 SFRSYM    DATA     BIT       IE_ET1
      00000091H   SFRSYM    DATA     BYTE      TMR3CN
      000000D4H   SFRSYM    DATA     BYTE      P0SKIP
      000000A8H.5 SFRSYM    DATA     BIT       IE_ET2
      000000D5H   SFRSYM    DATA     BYTE      P1SKIP
      000000D6H   SFRSYM    DATA     BYTE      P2SKIP
      000000A8H.0 SFRSYM    DATA     BIT       IE_EX0
      000000A8H.2 SFRSYM    DATA     BIT       IE_EX1
      0000009FH   SFRSYM    DATA     BYTE      CPT0MX
LX51 LINKER/LOCATER V4.66.97.0                                                        01/28/2020  21:12:22  PAGE 38


      00000098H.7 SFRSYM    DATA     BIT       SCON0_SMODE
      000000B3H   SFRSYM    DATA     BYTE      OSCICL
      0000009EH   SFRSYM    DATA     BYTE      CPT1MX
      000000A9H   SFRSYM    DATA     BYTE      CLKSEL
      000000B2H   SFRSYM    DATA     BYTE      OSCICN
      000000F0H   SFRSYM    DATA     BYTE      B
      000000BEH   SFRSYM    DATA     BYTE      ADC0H
      000000F8H.7 SFRSYM    DATA     BIT       SPI0CN_SPIF
      000000CAH   SFRSYM    DATA     WORD      TMR2RL
      000000BDH   SFRSYM    DATA     BYTE      ADC0L
      000000C8H.5 SFRSYM    DATA     BIT       TMR2CN_TF2LEN
      000000F8H.6 SFRSYM    DATA     BIT       SPI0CN_WCOL
      00000092H   SFRSYM    DATA     WORD      TMR3RL
      000000F8H.2 SFRSYM    DATA     BIT       SPI0CN_NSSMD0
      000000E0H   SFRSYM    DATA     BYTE      ACC
      000000F8H.3 SFRSYM    DATA     BIT       SPI0CN_NSSMD1
      000000FBH   SFRSYM    DATA     WORD      PCA0CP0
      000000E9H   SFRSYM    DATA     WORD      PCA0CP1
      000000EBH   SFRSYM    DATA     WORD      PCA0CP2
      000000EDH   SFRSYM    DATA     WORD      PCA0CP3
      0000008CH   SFRSYM    DATA     BYTE      TH0
      000000B8H.4 SFRSYM    DATA     BIT       IP_PS0
      000000FDH   SFRSYM    DATA     WORD      PCA0CP4
      0000008DH   SFRSYM    DATA     BYTE      TH1
      000000FAH   SFRSYM    DATA     BYTE      PCA0H
      000000B8H.1 SFRSYM    DATA     BIT       IP_PT0
      000000B8H.3 SFRSYM    DATA     BIT       IP_PT1
      000000B8H.5 SFRSYM    DATA     BIT       IP_PT2
      0000008AH   SFRSYM    DATA     BYTE      TL0
      000000B1H   SFRSYM    DATA     BYTE      OSCXCN
      000000D0H.5 SFRSYM    DATA     BIT       PSW_F0
      000000A8H.6 SFRSYM    DATA     BIT       IE_ESPI0
      0000008BH   SFRSYM    DATA     BYTE      TL1
      000000F9H   SFRSYM    DATA     BYTE      PCA0L
      000000D0H.1 SFRSYM    DATA     BIT       PSW_F1
      00000080H.0 SFRSYM    DATA     BIT       P0_B0
      000000B8H.0 SFRSYM    DATA     BIT       IP_PX0
      000000C8H.0 SFRSYM    DATA     BIT       TMR2CN_T2XCLK
      00000090H.0 SFRSYM    DATA     BIT       P1_B0
      00000080H.1 SFRSYM    DATA     BIT       P0_B1
      000000B8H.2 SFRSYM    DATA     BIT       IP_PX1
      00000088H.1 SFRSYM    DATA     BIT       TCON_IE0
      000000C0H.7 SFRSYM    DATA     BIT       SMB0CN_MASTER
      000000A0H.0 SFRSYM    DATA     BIT       P2_B0
      00000090H.1 SFRSYM    DATA     BIT       P1_B1
      00000080H.2 SFRSYM    DATA     BIT       P0_B2
      00000088H.3 SFRSYM    DATA     BIT       TCON_IE1
      000000C0H.1 SFRSYM    DATA     BIT       SMB0CN_ACK
      000000B0H.0 SFRSYM    DATA     BIT       P3_B0
      000000A0H.1 SFRSYM    DATA     BIT       P2_B1
      00000090H.2 SFRSYM    DATA     BIT       P1_B2
      00000080H.3 SFRSYM    DATA     BIT       P0_B3
      000000B0H.1 SFRSYM    DATA     BIT       P3_B1
      000000A0H.2 SFRSYM    DATA     BIT       P2_B2
      00000090H.3 SFRSYM    DATA     BIT       P1_B3
      00000080H.4 SFRSYM    DATA     BIT       P0_B4
      000000B0H.2 SFRSYM    DATA     BIT       P3_B2
      000000A0H.3 SFRSYM    DATA     BIT       P2_B3
      00000090H.4 SFRSYM    DATA     BIT       P1_B4
      00000080H.5 SFRSYM    DATA     BIT       P0_B5
      000000B0H.3 SFRSYM    DATA     BIT       P3_B3
      000000A0H.4 SFRSYM    DATA     BIT       P2_B4
LX51 LINKER/LOCATER V4.66.97.0                                                        01/28/2020  21:12:22  PAGE 39


      00000090H.5 SFRSYM    DATA     BIT       P1_B5
      00000080H.6 SFRSYM    DATA     BIT       P0_B6
      000000C0H.6 SFRSYM    DATA     BIT       SMB0CN_TXMODE
      000000B0H.4 SFRSYM    DATA     BIT       P3_B4
      000000A0H.5 SFRSYM    DATA     BIT       P2_B5
      00000090H.6 SFRSYM    DATA     BIT       P1_B6
      00000080H.7 SFRSYM    DATA     BIT       P0_B7
      000000A0H.6 SFRSYM    DATA     BIT       P2_B6
      00000090H.7 SFRSYM    DATA     BIT       P1_B7
      000000A0H.7 SFRSYM    DATA     BIT       P2_B7
      00000083H   SFRSYM    DATA     BYTE      DPH
      000000E8H.5 SFRSYM    DATA     BIT       ADC0CN_ADINT
      000000C4H   SFRSYM    DATA     BYTE      ADC0GTH
      000000D0H.6 SFRSYM    DATA     BIT       PSW_AC
      00000088H.5 SFRSYM    DATA     BIT       TCON_TF0
      00000098H.0 SFRSYM    DATA     BIT       SCON0_RI
      00000082H   SFRSYM    DATA     BYTE      DPL
      00000088H.7 SFRSYM    DATA     BIT       TCON_TF1
      00000099H   SFRSYM    DATA     BYTE      SBUF0
      000000C3H   SFRSYM    DATA     BYTE      ADC0GTL
      00000098H.1 SFRSYM    DATA     BIT       SCON0_TI
      000000C6H   SFRSYM    DATA     BYTE      ADC0LTH
      00000088H.0 SFRSYM    DATA     BIT       TCON_IT0
      000000EFH   SFRSYM    DATA     BYTE      RSTSRC
      00000088H.2 SFRSYM    DATA     BIT       TCON_IT1
      00000098H   SFRSYM    DATA     BYTE      SCON0
      000000BAH   SFRSYM    DATA     BYTE      AMX0N
      000000C5H   SFRSYM    DATA     BYTE      ADC0LTL
      000000B8H.6 SFRSYM    DATA     BIT       IP_PSPI0
      000000BBH   SFRSYM    DATA     BYTE      AMX0P
      00000088H.4 SFRSYM    DATA     BIT       TCON_TR0
      00000088H.6 SFRSYM    DATA     BIT       TCON_TR1
      000000C2H   SFRSYM    DATA     BYTE      SMB0DAT
      000000C0H.5 SFRSYM    DATA     BIT       SMB0CN_STA
      000000CDH   SFRSYM    DATA     BYTE      TMR2H
      000000A1H   SFRSYM    DATA     BYTE      SPI0CFG
      00000095H   SFRSYM    DATA     BYTE      TMR3H
      0000008EH   SFRSYM    DATA     BYTE      CKCON
      000000C8H.2 SFRSYM    DATA     BIT       TMR2CN_TR2
      000000CCH   SFRSYM    DATA     BYTE      TMR2L
      00000094H   SFRSYM    DATA     BYTE      TMR3L
      000000D8H.0 SFRSYM    DATA     BIT       PCA0CN_CCF0
      000000A8H.7 SFRSYM    DATA     BIT       IE_EA
      000000D8H.1 SFRSYM    DATA     BIT       PCA0CN_CCF1
      000000B6H   SFRSYM    DATA     BYTE      FLSCL
      000000D8H.2 SFRSYM    DATA     BIT       PCA0CN_CCF2
      000000D0H.7 SFRSYM    DATA     BIT       PSW_CY
      000000D8H.3 SFRSYM    DATA     BIT       PCA0CN_CCF3
      000000A3H   SFRSYM    DATA     BYTE      SPI0DAT
      000000D8H.4 SFRSYM    DATA     BIT       PCA0CN_CCF4
      000000BDH   SFRSYM    DATA     WORD      ADC0
      000000C0H.3 SFRSYM    DATA     BIT       SMB0CN_ACKRQ
      000000D0H   SFRSYM    DATA     BYTE      PSW
      000000C0H.4 SFRSYM    DATA     BIT       SMB0CN_STO
      000000B7H   SFRSYM    DATA     BYTE      FLKEY

      01001265H   BLOCK     CODE     ---       LVL=0
      01001265H   BLOCK     CODE     NEAR LAB  LVL=1
      0000000BH   SYMBOL    DATA     DWORD     count
      ---         BLOCKEND  ---      ---       LVL=1
      01001265H   LINE      CODE     ---       #13
      01001265H   LINE      CODE     ---       #14
LX51 LINKER/LOCATER V4.66.97.0                                                        01/28/2020  21:12:22  PAGE 40


      01001265H   LINE      CODE     ---       #17
      0100127EH   LINE      CODE     ---       #18
      0100128FH   LINE      CODE     ---       #19
      010012ADH   LINE      CODE     ---       #20
      010012C3H   LINE      CODE     ---       #21
      010012C6H   LINE      CODE     ---       #22
      ---         BLOCKEND  ---      ---       LVL=0

      010015A7H   BLOCK     CODE     ---       LVL=0
      010015A7H   LINE      CODE     ---       #24
      010015A7H   LINE      CODE     ---       #25
      010015A7H   LINE      CODE     ---       #27
      010015AAH   LINE      CODE     ---       #29
      010015ADH   LINE      CODE     ---       #30
      010015B2H   LINE      CODE     ---       #32
      010015B5H   LINE      CODE     ---       #33
      ---         BLOCKEND  ---      ---       LVL=0

      ---         MODULE    ---      ---       UART
      00000054H   PUBLIC    DATA     WORD      Uart_Baud
      0000008CH   PUBLIC    IDATA    ---       sta_msg
      00000053H   PUBLIC    DATA     BYTE      sta_msg_send_complete
      00000052H   PUBLIC    DATA     BYTE      Uart_Recv_buff_size
      0000004DH   PUBLIC    DATA     ---       Uart_Recv_buff
      0000004CH   PUBLIC    DATA     BYTE      sta_msg_len
      0000004BH   PUBLIC    DATA     BYTE      sta_msg_send_count
      01001323H   PUBLIC    CODE     ---       _UART_GetBuff
      010015BFH   PUBLIC    CODE     ---       UART_Send
      010013C9H   PUBLIC    CODE     ---       UART0_Interrupt
      010015DCH   PUBLIC    CODE     ---       UART_Init
      000000A2H   SFRSYM    DATA     BYTE      SPI0CKR
      00000080H   SFRSYM    DATA     BYTE      P0
      000000D0H.2 SFRSYM    DATA     BIT       PSW_OV
      000000D8H.7 SFRSYM    DATA     BIT       PCA0CN_CF
      00000090H   SFRSYM    DATA     BYTE      P1
      000000F8H.4 SFRSYM    DATA     BIT       SPI0CN_RXOVRN
      000000A0H   SFRSYM    DATA     BYTE      P2
      000000B0H   SFRSYM    DATA     BYTE      P3
      000000BCH   SFRSYM    DATA     BYTE      ADC0CF
      000000E8H.7 SFRSYM    DATA     BIT       ADC0CN_ADEN
      000000F9H   SFRSYM    DATA     WORD      PCA0
      000000E6H   SFRSYM    DATA     BYTE      EIE1
      0000008FH   SFRSYM    DATA     BYTE      PSCTL
      000000E4H   SFRSYM    DATA     BYTE      IT01CF
      000000E8H   SFRSYM    DATA     BYTE      ADC0CN
      000000A4H   SFRSYM    DATA     BYTE      P0MDOUT
      000000D8H.6 SFRSYM    DATA     BIT       PCA0CN_CR
      000000A5H   SFRSYM    DATA     BYTE      P1MDOUT
      000000CBH   SFRSYM    DATA     BYTE      TMR2RLH
      000000A6H   SFRSYM    DATA     BYTE      P2MDOUT
      000000A8H   SFRSYM    DATA     BYTE      IE
      00000093H   SFRSYM    DATA     BYTE      TMR3RLH
      000000A7H   SFRSYM    DATA     BYTE      P3MDOUT
      000000F6H   SFRSYM    DATA     BYTE      EIP1
      000000F8H.0 SFRSYM    DATA     BIT       SPI0CN_SPIEN
      00000098H.2 SFRSYM    DATA     BIT       SCON0_RB8
      000000CAH   SFRSYM    DATA     BYTE      TMR2RLL
      000000FCH   SFRSYM    DATA     BYTE      PCA0CPH0
      000000E8H.6 SFRSYM    DATA     BIT       ADC0CN_ADTM
      00000092H   SFRSYM    DATA     BYTE      TMR3RLL
      000000EAH   SFRSYM    DATA     BYTE      PCA0CPH1
      00000098H.3 SFRSYM    DATA     BIT       SCON0_TB8
LX51 LINKER/LOCATER V4.66.97.0                                                        01/28/2020  21:12:22  PAGE 41


      000000F0H.0 SFRSYM    DATA     BIT       B_B0
      00000082H   SFRSYM    DATA     WORD      DP
      000000ECH   SFRSYM    DATA     BYTE      PCA0CPH2
      000000F0H.1 SFRSYM    DATA     BIT       B_B1
      000000C3H   SFRSYM    DATA     WORD      ADC0GT
      000000EEH   SFRSYM    DATA     BYTE      PCA0CPH3
      000000F0H.2 SFRSYM    DATA     BIT       B_B2
      000000FBH   SFRSYM    DATA     BYTE      PCA0CPL0
      000000FEH   SFRSYM    DATA     BYTE      PCA0CPH4
      000000F0H.3 SFRSYM    DATA     BIT       B_B3
      000000D9H   SFRSYM    DATA     BYTE      PCA0MD
      000000DAH   SFRSYM    DATA     BYTE      PCA0CPM0
      000000E9H   SFRSYM    DATA     BYTE      PCA0CPL1
      000000D8H   SFRSYM    DATA     BYTE      PCA0CN
      000000F0H.4 SFRSYM    DATA     BIT       B_B4
      000000DBH   SFRSYM    DATA     BYTE      PCA0CPM1
      000000EBH   SFRSYM    DATA     BYTE      PCA0CPL2
      000000F0H.5 SFRSYM    DATA     BIT       B_B5
      000000DCH   SFRSYM    DATA     BYTE      PCA0CPM2
      000000EDH   SFRSYM    DATA     BYTE      PCA0CPL3
      000000B8H   SFRSYM    DATA     BYTE      IP
      000000F0H.6 SFRSYM    DATA     BIT       B_B6
      000000C5H   SFRSYM    DATA     WORD      ADC0LT
      000000DDH   SFRSYM    DATA     BYTE      PCA0CPM3
      000000FDH   SFRSYM    DATA     BYTE      PCA0CPL4
      00000098H.5 SFRSYM    DATA     BIT       SCON0_MCE
      000000F0H.7 SFRSYM    DATA     BIT       B_B7
      000000DEH   SFRSYM    DATA     BYTE      PCA0CPM4
      000000E1H   SFRSYM    DATA     BYTE      XBR0
      000000C1H   SFRSYM    DATA     BYTE      SMB0CF
      000000E2H   SFRSYM    DATA     BYTE      XBR1
      000000AAH   SFRSYM    DATA     BYTE      EMI0CN
      000000C0H.2 SFRSYM    DATA     BIT       SMB0CN_ARBLOST
      000000E0H.0 SFRSYM    DATA     BIT       ACC_ACC0
      000000D1H   SFRSYM    DATA     BYTE      REF0CN
      000000F8H.1 SFRSYM    DATA     BIT       SPI0CN_TXBMT
      000000E0H.1 SFRSYM    DATA     BIT       ACC_ACC1
      000000C0H.0 SFRSYM    DATA     BIT       SMB0CN_SI
      000000E0H.2 SFRSYM    DATA     BIT       ACC_ACC2
      000000E0H.3 SFRSYM    DATA     BIT       ACC_ACC3
      00000081H   SFRSYM    DATA     BYTE      SP
      000000E0H.4 SFRSYM    DATA     BIT       ACC_ACC4
      000000E0H.5 SFRSYM    DATA     BIT       ACC_ACC5
      000000C0H   SFRSYM    DATA     BYTE      SMB0CN
      000000E0H.6 SFRSYM    DATA     BIT       ACC_ACC6
      000000CCH   SFRSYM    DATA     WORD      TMR2
      000000E0H.7 SFRSYM    DATA     BIT       ACC_ACC7
      00000094H   SFRSYM    DATA     WORD      TMR3
      000000FFH   SFRSYM    DATA     BYTE      VDM0CN
      000000F1H   SFRSYM    DATA     BYTE      P0MDIN
      0000009DH   SFRSYM    DATA     BYTE      CPT0MD
      0000009BH   SFRSYM    DATA     BYTE      CPT0CN
      00000098H.4 SFRSYM    DATA     BIT       SCON0_REN
      000000F2H   SFRSYM    DATA     BYTE      P1MDIN
      0000009CH   SFRSYM    DATA     BYTE      CPT1MD
      0000009AH   SFRSYM    DATA     BYTE      CPT1CN
      000000F3H   SFRSYM    DATA     BYTE      P2MDIN
      000000F4H   SFRSYM    DATA     BYTE      P3MDIN
      000000C8H.7 SFRSYM    DATA     BIT       TMR2CN_TF2H
      000000C8H.3 SFRSYM    DATA     BIT       TMR2CN_T2SPLIT
      000000F8H   SFRSYM    DATA     BYTE      SPI0CN
      000000D0H.3 SFRSYM    DATA     BIT       PSW_RS0
LX51 LINKER/LOCATER V4.66.97.0                                                        01/28/2020  21:12:22  PAGE 42


      00000087H   SFRSYM    DATA     BYTE      PCON
      000000C8H.6 SFRSYM    DATA     BIT       TMR2CN_TF2L
      000000D0H.4 SFRSYM    DATA     BIT       PSW_RS1
      000000E8H.0 SFRSYM    DATA     BIT       ADC0CN_ADCM0
      000000E8H.1 SFRSYM    DATA     BIT       ADC0CN_ADCM1
      000000E8H.2 SFRSYM    DATA     BIT       ADC0CN_ADCM2
      000000E8H.3 SFRSYM    DATA     BIT       ADC0CN_ADWINT
      00000089H   SFRSYM    DATA     BYTE      TMOD
      00000088H   SFRSYM    DATA     BYTE      TCON
      000000E8H.4 SFRSYM    DATA     BIT       ADC0CN_ADBUSY
      000000F8H.5 SFRSYM    DATA     BIT       SPI0CN_MODF
      000000D0H.0 SFRSYM    DATA     BIT       PSW_PARITY
      000000A8H.4 SFRSYM    DATA     BIT       IE_ES0
      000000A8H.1 SFRSYM    DATA     BIT       IE_ET0
      000000C8H   SFRSYM    DATA     BYTE      TMR2CN
      000000A8H.3 SFRSYM    DATA     BIT       IE_ET1
      00000091H   SFRSYM    DATA     BYTE      TMR3CN
      000000D4H   SFRSYM    DATA     BYTE      P0SKIP
      000000A8H.5 SFRSYM    DATA     BIT       IE_ET2
      000000D5H   SFRSYM    DATA     BYTE      P1SKIP
      000000D6H   SFRSYM    DATA     BYTE      P2SKIP
      000000A8H.0 SFRSYM    DATA     BIT       IE_EX0
      000000A8H.2 SFRSYM    DATA     BIT       IE_EX1
      0000009FH   SFRSYM    DATA     BYTE      CPT0MX
      00000098H.7 SFRSYM    DATA     BIT       SCON0_SMODE
      000000B3H   SFRSYM    DATA     BYTE      OSCICL
      0000009EH   SFRSYM    DATA     BYTE      CPT1MX
      000000A9H   SFRSYM    DATA     BYTE      CLKSEL
      000000B2H   SFRSYM    DATA     BYTE      OSCICN
      000000F0H   SFRSYM    DATA     BYTE      B
      000000BEH   SFRSYM    DATA     BYTE      ADC0H
      000000F8H.7 SFRSYM    DATA     BIT       SPI0CN_SPIF
      000000CAH   SFRSYM    DATA     WORD      TMR2RL
      000000BDH   SFRSYM    DATA     BYTE      ADC0L
      000000C8H.5 SFRSYM    DATA     BIT       TMR2CN_TF2LEN
      000000F8H.6 SFRSYM    DATA     BIT       SPI0CN_WCOL
      00000092H   SFRSYM    DATA     WORD      TMR3RL
      000000F8H.2 SFRSYM    DATA     BIT       SPI0CN_NSSMD0
      000000E0H   SFRSYM    DATA     BYTE      ACC
      000000F8H.3 SFRSYM    DATA     BIT       SPI0CN_NSSMD1
      000000FBH   SFRSYM    DATA     WORD      PCA0CP0
      000000E9H   SFRSYM    DATA     WORD      PCA0CP1
      000000EBH   SFRSYM    DATA     WORD      PCA0CP2
      000000EDH   SFRSYM    DATA     WORD      PCA0CP3
      0000008CH   SFRSYM    DATA     BYTE      TH0
      000000B8H.4 SFRSYM    DATA     BIT       IP_PS0
      000000FDH   SFRSYM    DATA     WORD      PCA0CP4
      0000008DH   SFRSYM    DATA     BYTE      TH1
      000000FAH   SFRSYM    DATA     BYTE      PCA0H
      000000B8H.1 SFRSYM    DATA     BIT       IP_PT0
      000000B8H.3 SFRSYM    DATA     BIT       IP_PT1
      000000B8H.5 SFRSYM    DATA     BIT       IP_PT2
      0000008AH   SFRSYM    DATA     BYTE      TL0
      000000B1H   SFRSYM    DATA     BYTE      OSCXCN
      000000D0H.5 SFRSYM    DATA     BIT       PSW_F0
      000000A8H.6 SFRSYM    DATA     BIT       IE_ESPI0
      0000008BH   SFRSYM    DATA     BYTE      TL1
      000000F9H   SFRSYM    DATA     BYTE      PCA0L
      000000D0H.1 SFRSYM    DATA     BIT       PSW_F1
      00000080H.0 SFRSYM    DATA     BIT       P0_B0
      000000B8H.0 SFRSYM    DATA     BIT       IP_PX0
      000000C8H.0 SFRSYM    DATA     BIT       TMR2CN_T2XCLK
LX51 LINKER/LOCATER V4.66.97.0                                                        01/28/2020  21:12:22  PAGE 43


      00000090H.0 SFRSYM    DATA     BIT       P1_B0
      00000080H.1 SFRSYM    DATA     BIT       P0_B1
      000000B8H.2 SFRSYM    DATA     BIT       IP_PX1
      00000088H.1 SFRSYM    DATA     BIT       TCON_IE0
      000000C0H.7 SFRSYM    DATA     BIT       SMB0CN_MASTER
      000000A0H.0 SFRSYM    DATA     BIT       P2_B0
      00000090H.1 SFRSYM    DATA     BIT       P1_B1
      00000080H.2 SFRSYM    DATA     BIT       P0_B2
      00000088H.3 SFRSYM    DATA     BIT       TCON_IE1
      000000C0H.1 SFRSYM    DATA     BIT       SMB0CN_ACK
      000000B0H.0 SFRSYM    DATA     BIT       P3_B0
      000000A0H.1 SFRSYM    DATA     BIT       P2_B1
      00000090H.2 SFRSYM    DATA     BIT       P1_B2
      00000080H.3 SFRSYM    DATA     BIT       P0_B3
      000000B0H.1 SFRSYM    DATA     BIT       P3_B1
      000000A0H.2 SFRSYM    DATA     BIT       P2_B2
      00000090H.3 SFRSYM    DATA     BIT       P1_B3
      00000080H.4 SFRSYM    DATA     BIT       P0_B4
      000000B0H.2 SFRSYM    DATA     BIT       P3_B2
      000000A0H.3 SFRSYM    DATA     BIT       P2_B3
      00000090H.4 SFRSYM    DATA     BIT       P1_B4
      00000080H.5 SFRSYM    DATA     BIT       P0_B5
      000000B0H.3 SFRSYM    DATA     BIT       P3_B3
      000000A0H.4 SFRSYM    DATA     BIT       P2_B4
      00000090H.5 SFRSYM    DATA     BIT       P1_B5
      00000080H.6 SFRSYM    DATA     BIT       P0_B6
      000000C0H.6 SFRSYM    DATA     BIT       SMB0CN_TXMODE
      000000B0H.4 SFRSYM    DATA     BIT       P3_B4
      000000A0H.5 SFRSYM    DATA     BIT       P2_B5
      00000090H.6 SFRSYM    DATA     BIT       P1_B6
      00000080H.7 SFRSYM    DATA     BIT       P0_B7
      000000A0H.6 SFRSYM    DATA     BIT       P2_B6
      00000090H.7 SFRSYM    DATA     BIT       P1_B7
      000000A0H.7 SFRSYM    DATA     BIT       P2_B7
      00000083H   SFRSYM    DATA     BYTE      DPH
      000000E8H.5 SFRSYM    DATA     BIT       ADC0CN_ADINT
      000000C4H   SFRSYM    DATA     BYTE      ADC0GTH
      000000D0H.6 SFRSYM    DATA     BIT       PSW_AC
      00000088H.5 SFRSYM    DATA     BIT       TCON_TF0
      00000098H.0 SFRSYM    DATA     BIT       SCON0_RI
      00000082H   SFRSYM    DATA     BYTE      DPL
      00000088H.7 SFRSYM    DATA     BIT       TCON_TF1
      00000099H   SFRSYM    DATA     BYTE      SBUF0
      000000C3H   SFRSYM    DATA     BYTE      ADC0GTL
      00000098H.1 SFRSYM    DATA     BIT       SCON0_TI
      000000C6H   SFRSYM    DATA     BYTE      ADC0LTH
      00000088H.0 SFRSYM    DATA     BIT       TCON_IT0
      000000EFH   SFRSYM    DATA     BYTE      RSTSRC
      00000088H.2 SFRSYM    DATA     BIT       TCON_IT1
      00000098H   SFRSYM    DATA     BYTE      SCON0
      000000BAH   SFRSYM    DATA     BYTE      AMX0N
      000000C5H   SFRSYM    DATA     BYTE      ADC0LTL
      000000B8H.6 SFRSYM    DATA     BIT       IP_PSPI0
      000000BBH   SFRSYM    DATA     BYTE      AMX0P
      00000088H.4 SFRSYM    DATA     BIT       TCON_TR0
      00000088H.6 SFRSYM    DATA     BIT       TCON_TR1
      000000C2H   SFRSYM    DATA     BYTE      SMB0DAT
      000000C0H.5 SFRSYM    DATA     BIT       SMB0CN_STA
      000000CDH   SFRSYM    DATA     BYTE      TMR2H
      000000A1H   SFRSYM    DATA     BYTE      SPI0CFG
      00000095H   SFRSYM    DATA     BYTE      TMR3H
      0000008EH   SFRSYM    DATA     BYTE      CKCON
LX51 LINKER/LOCATER V4.66.97.0                                                        01/28/2020  21:12:22  PAGE 44


      000000C8H.2 SFRSYM    DATA     BIT       TMR2CN_TR2
      000000CCH   SFRSYM    DATA     BYTE      TMR2L
      00000094H   SFRSYM    DATA     BYTE      TMR3L
      000000D8H.0 SFRSYM    DATA     BIT       PCA0CN_CCF0
      000000A8H.7 SFRSYM    DATA     BIT       IE_EA
      000000D8H.1 SFRSYM    DATA     BIT       PCA0CN_CCF1
      000000B6H   SFRSYM    DATA     BYTE      FLSCL
      000000D8H.2 SFRSYM    DATA     BIT       PCA0CN_CCF2
      000000D0H.7 SFRSYM    DATA     BIT       PSW_CY
      000000D8H.3 SFRSYM    DATA     BIT       PCA0CN_CCF3
      000000A3H   SFRSYM    DATA     BYTE      SPI0DAT
      000000D8H.4 SFRSYM    DATA     BIT       PCA0CN_CCF4
      000000BDH   SFRSYM    DATA     WORD      ADC0
      000000C0H.3 SFRSYM    DATA     BIT       SMB0CN_ACKRQ
      000000D0H   SFRSYM    DATA     BYTE      PSW
      000000C0H.4 SFRSYM    DATA     BIT       SMB0CN_STO
      000000B7H   SFRSYM    DATA     BYTE      FLKEY

      010015DCH   BLOCK     CODE     ---       LVL=0
      010015DCH   LINE      CODE     ---       #19
      010015DCH   LINE      CODE     ---       #20
      010015DCH   LINE      CODE     ---       #23
      010015DFH   LINE      CODE     ---       #24
      ---         BLOCKEND  ---      ---       LVL=0

      010013C9H   BLOCK     CODE     ---       LVL=0
      010013C9H   LINE      CODE     ---       #26
      010013D2H   LINE      CODE     ---       #28
      010013DAH   LINE      CODE     ---       #29
      010013DAH   LINE      CODE     ---       #30
      010013DDH   LINE      CODE     ---       #32
      010013E3H   LINE      CODE     ---       #33
      010013E5H   LINE      CODE     ---       #35
      010013ECH   LINE      CODE     ---       #36
      010013EEH   LINE      CODE     ---       #37
      010013EEH   LINE      CODE     ---       #39
      010013F6H   LINE      CODE     ---       #40
      010013F6H   LINE      CODE     ---       #41
      010013F9H   LINE      CODE     ---       #42
      010013FEH   LINE      CODE     ---       #43
      010013FEH   LINE      CODE     ---       #44
      01001403H   LINE      CODE     ---       #46
      01001403H   LINE      CODE     ---       #48
      0100140BH   LINE      CODE     ---       #49
      0100140DH   LINE      CODE     ---       #50
      0100140DH   LINE      CODE     ---       #51
      ---         BLOCKEND  ---      ---       LVL=0

      010015BFH   BLOCK     CODE     ---       LVL=0
      010015BFH   LINE      CODE     ---       #53
      010015BFH   LINE      CODE     ---       #54
      010015BFH   LINE      CODE     ---       #55
      010015C2H   LINE      CODE     ---       #56
      010015C4H   LINE      CODE     ---       #57
      010015C7H   LINE      CODE     ---       #58
      ---         BLOCKEND  ---      ---       LVL=0

      01001323H   BLOCK     CODE     ---       LVL=0
      0000000FH   SYMBOL    DATA     ---       pBuf
      00000005H   SYMBOL    DATA     BYTE      len
      01001329H   BLOCK     CODE     NEAR LAB  LVL=1
      00000007H   SYMBOL    DATA     BYTE      i
LX51 LINKER/LOCATER V4.66.97.0                                                        01/28/2020  21:12:22  PAGE 45


      00000012H   SYMBOL    DATA     BYTE      temp
      ---         BLOCKEND  ---      ---       LVL=1
      01001323H   LINE      CODE     ---       #60
      01001329H   LINE      CODE     ---       #61
      01001329H   LINE      CODE     ---       #62
      0100132BH   LINE      CODE     ---       #63
      0100132EH   LINE      CODE     ---       #65
      01001332H   LINE      CODE     ---       #66
      01001333H   LINE      CODE     ---       #68
      01001339H   LINE      CODE     ---       #69
      0100133BH   LINE      CODE     ---       #71
      01001342H   LINE      CODE     ---       #72
      01001358H   LINE      CODE     ---       #75
      0100135EH   LINE      CODE     ---       #76
      01001360H   LINE      CODE     ---       #77
      01001368H   LINE      CODE     ---       #78
      01001378H   LINE      CODE     ---       #81
      0100137AH   LINE      CODE     ---       #82
      ---         BLOCKEND  ---      ---       LVL=0

      ---         MODULE    ---      ---       ?C?FPADD
      0100003DH   PUBLIC    CODE     ---       ?C?FPADD
      01000039H   PUBLIC    CODE     ---       ?C?FPSUB

      ---         MODULE    ---      ---       ?C?FPMUL
      0100012EH   PUBLIC    CODE     ---       ?C?FPMUL

      ---         MODULE    ---      ---       ?C?FPDIV
      01000237H   PUBLIC    CODE     ---       ?C?FPDIV

      ---         MODULE    ---      ---       ?C?FPCMP
      010002D6H   PUBLIC    CODE     ---       ?C?FPCMP
      010002D4H   PUBLIC    CODE     ---       ?C?FPCMP3

      ---         MODULE    ---      ---       ?C?FCAST
      01000357H   PUBLIC    CODE     ---       ?C?FCASTC
      01000352H   PUBLIC    CODE     ---       ?C?FCASTI
      0100034DH   PUBLIC    CODE     ---       ?C?FCASTL

      ---         MODULE    ---      ---       ?C?CASTF
      0100038BH   PUBLIC    CODE     ---       ?C?CASTF

      ---         MODULE    ---      ---       ?C?FPGETOPN
      010003C2H   PUBLIC    CODE     ---       ?C?FPGETOPN2
      010003F7H   PUBLIC    CODE     ---       ?C?FPNANRESULT
      01000401H   PUBLIC    CODE     ---       ?C?FPOVERFLOW
      010003D9H   PUBLIC    CODE     ---       ?C?FPRESULT
      010003EDH   PUBLIC    CODE     ---       ?C?FPRESULT2
      010003FEH   PUBLIC    CODE     ---       ?C?FPUNDERFLOW

      ---         MODULE    ---      ---       ?C_INIT
      010011A9H   PUBLIC    CODE     ---       ?C_START

      ---         MODULE    ---      ---       ?C?CLDOPTR
      0100040CH   PUBLIC    CODE     ---       ?C?CLDOPTR

      ---         MODULE    ---      ---       ?C?CSTPTR
      01000439H   PUBLIC    CODE     ---       ?C?CSTPTR

      ---         MODULE    ---      ---       ?C?CSTOPTR
      0100044BH   PUBLIC    CODE     ---       ?C?CSTOPTR

LX51 LINKER/LOCATER V4.66.97.0                                                        01/28/2020  21:12:22  PAGE 46


      ---         MODULE    ---      ---       ?C?IMUL
      0100046DH   PUBLIC    CODE     ---       ?C?IMUL

      ---         MODULE    ---      ---       ?C?ISTPTR
      0100047FH   PUBLIC    CODE     ---       ?C?ISTPTR

      ---         MODULE    ---      ---       ?C?LMUL
      0100049EH   PUBLIC    CODE     ---       ?C?LMUL

      ---         MODULE    ---      ---       ?C?ULDIV
      01000529H   PUBLIC    CODE     ---       ?C?ULDIV

      ---         MODULE    ---      ---       ?C?LNEG
      010005BBH   PUBLIC    CODE     ---       ?C?LNEG

      ---         MODULE    ---      ---       ?C?ULCMP
      010005C9H   PUBLIC    CODE     ---       ?C?ULCMP

      ---         MODULE    ---      ---       ?C?ULSHR
      010005DAH   PUBLIC    CODE     ---       ?C?ULSHR

Program Size: data=159.0 xdata=0 const=0 code=5599
LX51 RUN COMPLETE.  0 WARNING(S),  0 ERROR(S)
